
D8M_Camera_Test.elf:     file format elf32-littlenios2
D8M_Camera_Test.elf
architecture: nios2:r1, flags 0x00000112:
EXEC_P, HAS_SYMS, D_PAGED
start address 0x00020248

Program Header:
    LOAD off    0x00001000 vaddr 0x00020000 paddr 0x00020000 align 2**12
         filesz 0x00000020 memsz 0x00000020 flags r-x
    LOAD off    0x00001020 vaddr 0x00020020 paddr 0x00020020 align 2**12
         filesz 0x0001489c memsz 0x0001489c flags r-x
    LOAD off    0x000158bc vaddr 0x000348bc paddr 0x00036bc0 align 2**12
         filesz 0x00002304 memsz 0x00002304 flags rw-
    LOAD off    0x00017ec4 vaddr 0x00038ec4 paddr 0x00038ec4 align 2**12
         filesz 0x00000000 memsz 0x00000244 flags rw-

Sections:
Idx Name          Size      VMA       LMA       File off  Algn
  0 .entry        00000020  00020000  00020000  00001000  2**5
                  CONTENTS, ALLOC, LOAD, READONLY, CODE
  1 .exceptions   00000228  00020020  00020020  00001020  2**2
                  CONTENTS, ALLOC, LOAD, READONLY, CODE
  2 .text         00013cc0  00020248  00020248  00001248  2**2
                  CONTENTS, ALLOC, LOAD, READONLY, CODE
  3 .rodata       000009b4  00033f08  00033f08  00014f08  2**2
                  CONTENTS, ALLOC, LOAD, READONLY, DATA
  4 .rwdata       00002304  000348bc  00036bc0  000158bc  2**2
                  CONTENTS, ALLOC, LOAD, DATA, SMALL_DATA
  5 .bss          00000244  00038ec4  00038ec4  00017ec4  2**2
                  ALLOC, SMALL_DATA
  6 .onchip_memory2_0 00000000  00039108  00039108  00017bc0  2**0
                  CONTENTS
  7 .comment      00000023  00000000  00000000  00017bc0  2**0
                  CONTENTS, READONLY
  8 .debug_aranges 00001020  00000000  00000000  00017be8  2**3
                  CONTENTS, READONLY, DEBUGGING
  9 .debug_info   00027400  00000000  00000000  00018c08  2**0
                  CONTENTS, READONLY, DEBUGGING
 10 .debug_abbrev 00009eba  00000000  00000000  00040008  2**0
                  CONTENTS, READONLY, DEBUGGING
 11 .debug_line   0000ce3d  00000000  00000000  00049ec2  2**0
                  CONTENTS, READONLY, DEBUGGING
 12 .debug_frame  00002be0  00000000  00000000  00056d00  2**2
                  CONTENTS, READONLY, DEBUGGING
 13 .debug_str    0000429e  00000000  00000000  000598e0  2**0
                  CONTENTS, READONLY, DEBUGGING
 14 .debug_loc    00017bf6  00000000  00000000  0005db7e  2**0
                  CONTENTS, READONLY, DEBUGGING
 15 .debug_alt_sim_info 00000060  00000000  00000000  00075774  2**2
                  CONTENTS, READONLY, DEBUGGING
 16 .debug_ranges 000018e8  00000000  00000000  000757d8  2**3
                  CONTENTS, READONLY, DEBUGGING
 17 .thread_model 00000003  00000000  00000000  0007b2ca  2**0
                  CONTENTS, READONLY
 18 .cpu          0000000a  00000000  00000000  0007b2cd  2**0
                  CONTENTS, READONLY
 19 .qsys         00000001  00000000  00000000  0007b2d7  2**0
                  CONTENTS, READONLY
 20 .simulation_enabled 00000001  00000000  00000000  0007b2d8  2**0
                  CONTENTS, READONLY
 21 .sysid_hash   00000004  00000000  00000000  0007b2d9  2**0
                  CONTENTS, READONLY
 22 .sysid_base   00000004  00000000  00000000  0007b2dd  2**0
                  CONTENTS, READONLY
 23 .sysid_time   00000004  00000000  00000000  0007b2e1  2**0
                  CONTENTS, READONLY
 24 .stderr_dev   00000009  00000000  00000000  0007b2e5  2**0
                  CONTENTS, READONLY
 25 .stdin_dev    00000009  00000000  00000000  0007b2ee  2**0
                  CONTENTS, READONLY
 26 .stdout_dev   00000009  00000000  00000000  0007b2f7  2**0
                  CONTENTS, READONLY
 27 .sopc_system_name 00000004  00000000  00000000  0007b300  2**0
                  CONTENTS, READONLY
 28 .quartus_project_dir 00000017  00000000  00000000  0007b304  2**0
                  CONTENTS, READONLY
 29 .jdi          0000413b  00000000  00000000  0007b31b  2**0
                  CONTENTS, READONLY
 30 .sopcinfo     000a4eb0  00000000  00000000  0007f456  2**0
                  CONTENTS, READONLY
SYMBOL TABLE:
00020000 l    d  .entry	00000000 .entry
00020020 l    d  .exceptions	00000000 .exceptions
00020248 l    d  .text	00000000 .text
00033f08 l    d  .rodata	00000000 .rodata
000348bc l    d  .rwdata	00000000 .rwdata
00038ec4 l    d  .bss	00000000 .bss
00039108 l    d  .onchip_memory2_0	00000000 .onchip_memory2_0
00000000 l    d  .comment	00000000 .comment
00000000 l    d  .debug_aranges	00000000 .debug_aranges
00000000 l    d  .debug_info	00000000 .debug_info
00000000 l    d  .debug_abbrev	00000000 .debug_abbrev
00000000 l    d  .debug_line	00000000 .debug_line
00000000 l    d  .debug_frame	00000000 .debug_frame
00000000 l    d  .debug_str	00000000 .debug_str
00000000 l    d  .debug_loc	00000000 .debug_loc
00000000 l    d  .debug_alt_sim_info	00000000 .debug_alt_sim_info
00000000 l    d  .debug_ranges	00000000 .debug_ranges
00000000 l    df *ABS*	00000000 ../D8M_Camera_Test_bsp//obj/HAL/src/crt0.o
00020290 l       .text	00000000 alt_after_alt_main
00000000 l    df *ABS*	00000000 alt_irq_handler.c
00000000 l    df *ABS*	00000000 alt_instruction_exception_entry.c
00000000 l    df *ABS*	00000000 I2C_core.c
00000000 l    df *ABS*	00000000 auto_focus.c
00000000 l    df *ABS*	00000000 main.c
00000000 l    df *ABS*	00000000 mipi_bridge_config.c
000348bc l     O .rwdata	00000034 MipiBridgeReg
00000000 l    df *ABS*	00000000 mipi_camera_config.c
000348f0 l     O .rwdata	00000774 MipiCameraReg
00000000 l    df *ABS*	00000000 queue.c
00000000 l    df *ABS*	00000000 lib2-divmod.c
00000000 l    df *ABS*	00000000 malloc.c
00000000 l    df *ABS*	00000000 mallocr.c
00000000 l    df *ABS*	00000000 memset.c
00000000 l    df *ABS*	00000000 printf.c
00000000 l    df *ABS*	00000000 puts.c
00000000 l    df *ABS*	00000000 realloc.c
00000000 l    df *ABS*	00000000 mallocr.c
00000000 l    df *ABS*	00000000 sbrkr.c
00000000 l    df *ABS*	00000000 strlen.c
00000000 l    df *ABS*	00000000 vfprintf.c
000345de l     O .rodata	00000010 zeroes.4404
00027868 l     F .text	000000bc __sbprintf
000345ee l     O .rodata	00000010 blanks.4403
00000000 l    df *ABS*	00000000 wsetup.c
00000000 l    df *ABS*	00000000 dtoa.c
00027a78 l     F .text	00000200 quorem
00000000 l    df *ABS*	00000000 fflush.c
00000000 l    df *ABS*	00000000 findfp.c
000295a8 l     F .text	00000008 __fp_unlock
000295bc l     F .text	0000019c __sinit.part.1
00029758 l     F .text	00000008 __fp_lock
00000000 l    df *ABS*	00000000 mallocr.c
00000000 l    df *ABS*	00000000 fvwrite.c
00000000 l    df *ABS*	00000000 fwalk.c
00000000 l    df *ABS*	00000000 impure.c
0003546c l     O .rwdata	00000424 impure_data
00000000 l    df *ABS*	00000000 int_errno.c
00000000 l    df *ABS*	00000000 locale.c
000358b0 l     O .rwdata	00000020 lc_ctype_charset
00035890 l     O .rwdata	00000020 lc_message_charset
000358d0 l     O .rwdata	00000038 lconv
00000000 l    df *ABS*	00000000 makebuf.c
00000000 l    df *ABS*	00000000 memchr.c
00000000 l    df *ABS*	00000000 memcpy.c
00000000 l    df *ABS*	00000000 memmove.c
00000000 l    df *ABS*	00000000 mprec.c
00034620 l     O .rodata	0000000c p05.2768
00000000 l    df *ABS*	00000000 s_fpclassify.c
00000000 l    df *ABS*	00000000 stdio.c
00000000 l    df *ABS*	00000000 strcmp.c
00000000 l    df *ABS*	00000000 vfprintf.c
0002bc68 l     F .text	000000fc __sprint_r.part.0
00034754 l     O .rodata	00000010 blanks.4348
00034744 l     O .rodata	00000010 zeroes.4349
0002d1f4 l     F .text	000000bc __sbprintf
00000000 l    df *ABS*	00000000 writer.c
00000000 l    df *ABS*	00000000 closer.c
00000000 l    df *ABS*	00000000 mallocr.c
00000000 l    df *ABS*	00000000 fclose.c
00000000 l    df *ABS*	00000000 fputwc.c
00000000 l    df *ABS*	00000000 fstatr.c
00000000 l    df *ABS*	00000000 isattyr.c
00000000 l    df *ABS*	00000000 lseekr.c
00000000 l    df *ABS*	00000000 readr.c
00000000 l    df *ABS*	00000000 wbuf.c
00000000 l    df *ABS*	00000000 wcrtomb.c
00000000 l    df *ABS*	00000000 wctomb_r.c
00000000 l    df *ABS*	00000000 libgcc2.c
00000000 l    df *ABS*	00000000 libgcc2.c
00000000 l    df *ABS*	00000000 adddf3.c
00000000 l    df *ABS*	00000000 divdf3.c
00000000 l    df *ABS*	00000000 eqdf2.c
00000000 l    df *ABS*	00000000 gedf2.c
00000000 l    df *ABS*	00000000 ledf2.c
00000000 l    df *ABS*	00000000 muldf3.c
00000000 l    df *ABS*	00000000 subdf3.c
00000000 l    df *ABS*	00000000 fixdfsi.c
00000000 l    df *ABS*	00000000 floatsidf.c
00000000 l    df *ABS*	00000000 floatunsidf.c
00000000 l    df *ABS*	00000000 libgcc2.c
00000000 l    df *ABS*	00000000 libgcc2.c
00000000 l    df *ABS*	00000000 alt_close.c
00030cfc l     F .text	00000050 alt_get_errno
00000000 l    df *ABS*	00000000 alt_dev.c
00030e1c l     F .text	0000002c alt_dev_null_write
00000000 l    df *ABS*	00000000 alt_errno.c
00000000 l    df *ABS*	00000000 alt_fcntl.c
00030e48 l     F .text	00000050 alt_get_errno
00000000 l    df *ABS*	00000000 alt_fstat.c
00030fb8 l     F .text	00000050 alt_get_errno
00000000 l    df *ABS*	00000000 alt_irq_register.c
00000000 l    df *ABS*	00000000 alt_irq_vars.c
00000000 l    df *ABS*	00000000 alt_isatty.c
00031268 l     F .text	00000050 alt_get_errno
00000000 l    df *ABS*	00000000 alt_load.c
0003135c l     F .text	00000068 alt_load_section
00000000 l    df *ABS*	00000000 alt_lseek.c
00031448 l     F .text	00000050 alt_get_errno
00000000 l    df *ABS*	00000000 alt_main.c
00000000 l    df *ABS*	00000000 alt_malloc_lock.c
00000000 l    df *ABS*	00000000 alt_read.c
00031630 l     F .text	00000050 alt_get_errno
00000000 l    df *ABS*	00000000 alt_release_fd.c
00000000 l    df *ABS*	00000000 alt_sbrk.c
00036bb4 l     O .rwdata	00000004 heap_end
00000000 l    df *ABS*	00000000 alt_tick.c
00000000 l    df *ABS*	00000000 alt_usleep.c
00000000 l    df *ABS*	00000000 alt_write.c
00031a64 l     F .text	00000050 alt_get_errno
00000000 l    df *ABS*	00000000 alt_sys_init.c
00031bac l     F .text	00000038 alt_dev_reg
00035ab0 l     O .rwdata	00001060 jtag_uart
00036b10 l     O .rwdata	0000002c accelerometer_spi
00036b3c l     O .rwdata	0000002c control_uart
00000000 l    df *ABS*	00000000 altera_avalon_jtag_uart_fd.c
00000000 l    df *ABS*	00000000 altera_avalon_jtag_uart_init.c
00031eb8 l     F .text	00000210 altera_avalon_jtag_uart_irq
000320c8 l     F .text	000000a8 altera_avalon_jtag_uart_timeout
00000000 l    df *ABS*	00000000 altera_avalon_jtag_uart_ioctl.c
00000000 l    df *ABS*	00000000 altera_avalon_jtag_uart_read.c
00000000 l    df *ABS*	00000000 altera_avalon_jtag_uart_write.c
00000000 l    df *ABS*	00000000 altera_avalon_timer_sc.c
00032708 l     F .text	0000007c alt_avalon_timer_sc_irq
00000000 l    df *ABS*	00000000 altera_up_avalon_accelerometer_spi.c
00000000 l    df *ABS*	00000000 altera_up_avalon_rs232.c
00000000 l    df *ABS*	00000000 alt_alarm_start.c
00000000 l    df *ABS*	00000000 alt_busy_sleep.c
00000000 l    df *ABS*	00000000 alt_dcache_flush_all.c
00000000 l    df *ABS*	00000000 alt_dev_llist_insert.c
00033230 l     F .text	00000050 alt_get_errno
00000000 l    df *ABS*	00000000 alt_do_ctors.c
00000000 l    df *ABS*	00000000 alt_do_dtors.c
00000000 l    df *ABS*	00000000 alt_find_dev.c
00000000 l    df *ABS*	00000000 alt_icache_flush_all.c
00000000 l    df *ABS*	00000000 alt_io_redirect.c
000334a8 l     F .text	000000c4 alt_open_fd
00000000 l    df *ABS*	00000000 alt_open.c
000335e8 l     F .text	00000050 alt_get_errno
00033638 l     F .text	000000cc alt_file_locked
00000000 l    df *ABS*	00000000 altera_nios2_gen2_irq.c
00000000 l    df *ABS*	00000000 alt_find_file.c
00000000 l    df *ABS*	00000000 alt_get_fd.c
00000000 l    df *ABS*	00000000 alt_icache_flush.c
00000000 l    df *ABS*	00000000 atexit.c
00000000 l    df *ABS*	00000000 exit.c
00000000 l    df *ABS*	00000000 memcmp.c
00000000 l    df *ABS*	00000000 __atexit.c
00000000 l    df *ABS*	00000000 __call_atexit.c
00000000 l    df *ABS*	00000000 alt_exit.c
00038ed0 g     O .bss	00000001 parity
00038f6c g     O .bss	00000004 alt_instruction_exception_handler
00038ed4 g     O .bss	00000004 y_drift
0002b864 g     F .text	00000074 _mprec_log10
00038ed8 g     O .bss	00000002 colour
0002b950 g     F .text	0000008c __any_on
0002d790 g     F .text	00000054 _isatty_r
0003462c g     O .rodata	00000028 __mprec_tinytens
0003156c g     F .text	0000007c alt_main
00024f18 g     F .text	000000c0 _puts_r
00039008 g     O .bss	00000100 alt_irq
0002d7e4 g     F .text	00000060 _lseek_r
00021348 g     F .text	000000b0 Focus_Released
000205e8 g     F .text	00000060 ACK_check
00038edc g     O .bss	00000004 z_read
00036bc0 g       *ABS*	00000000 __flash_rwdata_start
0002055c g     F .text	0000008c ACK_single_check
0002f828 g     F .text	00000088 .hidden __eqdf2
00021168 g     F .text	000001e0 Focus_Window
00023910 g     F .text	0000006c OV8865_write_AF
00038ecc g     O .bss	00000002 mem_ticks
00039108 g       *ABS*	00000000 __alt_heap_start
000241e0 g     F .text	00000064 QUEUE_IsFull
00024edc g     F .text	0000003c printf
00038f98 g     O .bss	0000000c ball_x_max
0002d9fc g     F .text	0000009c _wcrtomb_r
0002bb28 g     F .text	0000005c __sseek
000298f8 g     F .text	00000010 __sinit
0002d8a4 g     F .text	00000140 __swbuf_r
0002a3c0 g     F .text	0000007c _setlocale_r
00029760 g     F .text	00000068 __sfmoreglue
0003160c g     F .text	00000024 __malloc_unlock
00032dec g     F .text	00000090 alt_up_rs232_read_fd
00038ec5 g     O .bss	00000001 process
00038ec4 g     O .bss	00000001 gain_calib
0002a884 g     F .text	0000015c memmove
00020648 g     F .text	00000200 OC_I2C_Write
000298e0 g     F .text	00000018 _cleanup
0002a9e0 g     F .text	000000a8 _Balloc
00038ee0 g     O .bss	00000008 ball_bounds
00021ddc g     F .text	00001424 sys_timer_isr
00021040 g     F .text	00000128 Focus_Init
00038ec8 g     O .bss	00000001 ack
0002f8b0 g     F .text	000000dc .hidden __gtdf2
0003385c g     F .text	00000024 altera_nios2_gen2_irq_init
00020000 g     F .entry	0000001c __reset
00038ee8 g     O .bss	00000002 x_min
00032958 g     F .text	000000cc alt_up_accelerometer_spi_read_x_axis
00038eea g     O .bss	00000001 stop_reasoned
00020020 g       *ABS*	00000000 __flash_exceptions_start
0002d734 g     F .text	0000005c _fstat_r
00036b70 g     O .rwdata	00000001 focus_scal
00038eec g     O .bss	00000004 z_drift
00038f44 g     O .bss	00000004 errno
00038fa4 g     O .bss	0000000c ball_distances
0002baa4 g     F .text	00000008 __seofread
00038f5c g     O .bss	00000004 alt_argv
0003eb68 g       *ABS*	00000000 _gp
00031a34 g     F .text	00000030 usleep
00035930 g     O .rwdata	00000180 alt_fd_list
00038ef0 g     O .bss	00000001 new_data
000333e4 g     F .text	00000090 alt_find_dev
0002a73c g     F .text	00000148 memcpy
00038ef4 g     O .bss	00000004 ctrl_uart
0002039c g     F .text	0000013c oc_i2c_init_ex
000295b0 g     F .text	0000000c _cleanup_r
00030b14 g     F .text	000000dc .hidden __floatsidf
0003356c g     F .text	0000007c alt_io_redirect
0002f98c g     F .text	000000f4 .hidden __ltdf2
00033f08 g       *ABS*	00000000 __DTOR_END__
00032d78 g     F .text	00000074 alt_up_rs232_read_data
00024fd8 g     F .text	00000014 puts
00033ad8 g     F .text	0000009c alt_exception_cause_generated_bad_addr
0002b9dc g     F .text	00000074 __fpclassifyd
0002b7c0 g     F .text	000000a4 __ratio
0002d1d8 g     F .text	0000001c __vfiprintf_internal
000241a0 g     F .text	00000040 QUEUE_IsEmpty
000322c8 g     F .text	0000021c altera_avalon_jtag_uart_read
00024550 g     F .text	00000014 malloc
00024eac g     F .text	00000030 _printf_r
00020000 g       *ABS*	00000000 __alt_mem_onchip_memory2_0
00038fb0 g     O .bss	0000000c ball_angles
00024494 g     F .text	00000064 .hidden __udivsi3
000312b8 g     F .text	000000a4 isatty
00038ec9 g     O .bss	00000001 stop_ticks
0003467c g     O .rodata	000000c8 __mprec_tens
0002a43c g     F .text	0000000c __locale_charset
00033a48 g     F .text	00000090 alt_icache_flush
00038f40 g     O .bss	00000004 __malloc_top_pad
00024368 g     F .text	00000034 QUEUE_Empty
000239fc g     F .text	000000d0 OV8865_FOCUS_Move_to
00036b90 g     O .rwdata	00000004 __mb_cur_max
0002a46c g     F .text	0000000c _localeconv_r
00038ef8 g     O .bss	00000004 y_read
0002adec g     F .text	0000003c __i2b
00029d7c g     F .text	000004bc __sfvwrite_r
000242d8 g     F .text	00000090 QUEUE_Pop
00025568 g     F .text	00000054 _sbrk_r
00038fbc g     O .bss	0000000a filter_x_min
0002d844 g     F .text	00000060 _read_r
00036b6e g     O .rwdata	00000002 focus_height
00036ba8 g     O .rwdata	00000004 alt_max_fd
00032cf4 g     F .text	00000044 alt_up_rs232_check_parity
0002d428 g     F .text	000000f0 _fclose_r
000238a4 g     F .text	0000006c OV8865_write_cmos_sensor_8
00029578 g     F .text	00000030 fflush
00038f3c g     O .bss	00000004 __malloc_max_sbrked_mem
000310b8 g     F .text	000001b0 alt_irq_register
00038efc g     O .bss	00000002 diameter
0002e694 g     F .text	000008ac .hidden __adddf3
0002b568 g     F .text	0000010c __b2d
0002e15c g     F .text	00000538 .hidden __umoddi3
00031498 g     F .text	000000d4 lseek
00038fc6 g     O .bss	0000000a filter_x_max
00036b88 g     O .rwdata	00000004 _global_impure_ptr
00025004 g     F .text	00000564 _realloc_r
00039108 g       *ABS*	00000000 __bss_end
0003192c g     F .text	00000108 alt_tick
0002dbe4 g     F .text	00000578 .hidden __udivdi3
00038f00 g     O .bss	00000004 a3
0002d690 g     F .text	00000024 _fputwc_r
00034654 g     O .rodata	00000028 __mprec_bigtens
0002abd0 g     F .text	00000104 __s2b
00030bf0 g     F .text	000000a8 .hidden __floatunsidf
00036b6a g     O .rwdata	00000002 video_h
0002b2a8 g     F .text	00000060 __mcmp
00038f04 g     O .bss	00000002 distance
00029918 g     F .text	00000018 __fp_lock_all
000213f8 g     F .text	000000b8 mipi_clear_error
00020bb0 g     F .text	00000210 OC_I2CL_Write
00031890 g     F .text	0000009c alt_alarm_stop
00038f54 g     O .bss	00000004 alt_irq_active
00020848 g     F .text	00000064 ACK_judge_for_read
000200fc g     F .exceptions	000000d8 alt_irq_handler
00023bac g     F .text	000000cc OV8865SetGain
00035908 g     O .rwdata	00000028 alt_dev_null
00020294 g     F .text	00000058 Write32_Data
000331e8 g     F .text	00000048 alt_dcache_flush_all
0002acd4 g     F .text	00000068 __hi0bits
00030a94 g     F .text	00000080 .hidden __fixdfsi
00036b71 g     O .rwdata	00000001 focus_scal_f
00036bc0 g       *ABS*	00000000 __ram_rwdata_end
00021d4c g     F .text	00000090 timer_init
00036ba0 g     O .rwdata	00000008 alt_dev_list
00031ab4 g     F .text	000000f8 write
00038f08 g     O .bss	00000004 x_read
000348bc g       *ABS*	00000000 __ram_rodata_end
00031008 g     F .text	000000b0 fstat
00032e7c g     F .text	00000094 alt_up_rs232_write_fd
0002190c g     F .text	000000c0 appendArray_u16
0002f98c g     F .text	000000f4 .hidden __ledf2
00038ec7 g     O .bss	00000001 moving
0002b020 g     F .text	00000140 __pow5mult
0002bd7c g     F .text	0000145c ___vfiprintf_internal_r
00038f50 g     O .bss	00000004 __nlocale_changed
000244f8 g     F .text	00000058 .hidden __umodsi3
00021548 g     F .text	00000178 mipi_show_error_info_more
00039108 g       *ABS*	00000000 end
00038fd0 g     O .bss	0000000c ball_sent
00031dfc g     F .text	000000bc altera_avalon_jtag_uart_init
00038fdc g     O .bss	0000000c ball_x_min
000201d4 g     F .exceptions	00000074 alt_instruction_exception_entry
00033f08 g       *ABS*	00000000 __CTOR_LIST__
0003f400 g       *ABS*	00000000 __alt_stack_pointer
00032784 g     F .text	00000084 alt_avalon_timer_sc_init
000219cc g     F .text	00000054 freeArray_u16
00030c98 g     F .text	00000064 .hidden __clzsi2
000324e4 g     F .text	00000224 altera_avalon_jtag_uart_write
00029908 g     F .text	00000004 __sfp_lock_acquire
00036b7e g     O .rwdata	00000001 last_colour
0002a658 g     F .text	000000e4 memchr
00025654 g     F .text	000021f8 ___vfprintf_internal_r
00029a6c g     F .text	00000310 _free_r
0002a448 g     F .text	00000010 __locale_mb_cur_max
00033d54 g     F .text	00000180 __call_exitprocs
00038f4c g     O .bss	00000004 __mlocale_changed
00036b80 g     O .rwdata	00000004 __malloc_sbrk_base
00020248 g     F .text	0000004c _start
00038f64 g     O .bss	00000004 _alt_tick_rate
00036b7d g     O .rwdata	00000001 last_command
0002b160 g     F .text	00000148 __lshift
00024244 g     F .text	00000094 QUEUE_Push
00038f68 g     O .bss	00000004 _alt_nticks
00031680 g     F .text	000000fc read
00031c1c g     F .text	0000007c alt_sys_init
00032848 g     F .text	00000044 alt_up_accelerometer_spi_read_address_register
00033c3c g     F .text	00000118 __register_exitproc
00032cb8 g     F .text	0000003c alt_up_rs232_get_available_space_in_write_FIFO
00023840 g     F .text	00000064 OV8865_read_cmos_sensor_8
0002ae28 g     F .text	000001f8 __multiply
00032170 g     F .text	00000068 altera_avalon_jtag_uart_close
0002362c g     F .text	0000006c MipiBridgeRegWrite
00036b7c g     O .rwdata	00000001 closest_distance
000348bc g       *ABS*	00000000 __ram_rwdata_start
00033f08 g       *ABS*	00000000 __ram_rodata_start
00038f70 g     O .bss	00000028 __malloc_current_mallinfo
0002b674 g     F .text	0000014c __d2b
00024fec g     F .text	00000018 realloc
00031c98 g     F .text	00000060 altera_avalon_jtag_uart_read_fd
00033994 g     F .text	000000b4 alt_get_fd
00033090 g     F .text	00000158 alt_busy_sleep
00032a24 g     F .text	000000cc alt_up_accelerometer_spi_read_y_axis
00038f0c g     O .bss	00000002 mid_pos
0002d310 g     F .text	00000054 _close_r
00038f0e g     O .bss	00000002 angle
00033bc0 g     F .text	0000007c memcmp
00031d58 g     F .text	00000050 altera_avalon_jtag_uart_close_fd
00039108 g       *ABS*	00000000 __alt_stack_base
00031da8 g     F .text	00000054 altera_avalon_jtag_uart_ioctl_fd
00038fe8 g     O .bss	0000000c ball_colours
00038f10 g     O .bss	00000001 closest_index
00027924 g     F .text	00000154 __swsetup_r
00020344 g     F .text	00000058 oc_i2c_init
0002ef40 g     F .text	000008e8 .hidden __divdf3
000297c8 g     F .text	00000118 __sfp
0002b8d8 g     F .text	00000078 __copybits
00038f12 g     O .bss	00000002 touching_edge
00035064 g     O .rwdata	00000408 __malloc_av_
00029914 g     F .text	00000004 __sinit_lock_release
00038f14 g     O .bss	00000004 a5
0002fa80 g     F .text	00000718 .hidden __muldf3
0002ba50 g     F .text	00000054 __sread
00032c18 g     F .text	00000060 alt_up_rs232_disable_read_interrupt
00033880 g     F .text	00000114 alt_find_file
00033280 g     F .text	000000a4 alt_dev_llist_insert
000315e8 g     F .text	00000024 __malloc_lock
000317e0 g     F .text	000000b0 sbrk
00038f18 g     O .bss	00000001 balls_detected
00023ef4 g     F .text	00000208 MipiCameraInit
000235e0 g     F .text	0000004c nSWAP16
0002951c g     F .text	0000005c _fflush_r
0002d364 g     F .text	000000c4 _calloc_r
000240fc g     F .text	00000070 QUEUE_New
00038ec4 g       *ABS*	00000000 __bss_start
00024d84 g     F .text	00000128 memset
00023200 g     F .text	000003e0 main
00038f60 g     O .bss	00000004 alt_envp
00038f38 g     O .bss	00000004 __malloc_max_total_mem
00031cf8 g     F .text	00000060 altera_avalon_jtag_uart_write_fd
00038f1c g     O .bss	00000004 a2
0002d9e4 g     F .text	00000018 __swbuf
00021748 g     F .text	00000058 initArray_u8
0002bb84 g     F .text	00000008 __sclose
0003f400 g       *ABS*	00000000 __alt_heap_limit
0002d518 g     F .text	00000014 fclose
00027c78 g     F .text	00001688 _dtoa_r
00024578 g     F .text	0000080c _malloc_r
0002db58 g     F .text	00000030 __ascii_wctomb
00036bac g     O .rwdata	00000004 alt_errno
0002a238 g     F .text	000000c4 _fwalk
0002439c g     F .text	00000084 .hidden __divsi3
000204d8 g     F .text	00000084 oc_i2c_uninit
00029948 g     F .text	00000124 _malloc_trim_r
00033f08 g       *ABS*	00000000 __CTOR_END__
00036b74 g     O .rwdata	00000002 gain
00023d34 g     F .text	000001c0 MIPI_BIN_LEVEL
0002bb8c g     F .text	000000dc strcmp
00036b78 g     O .rwdata	00000004 exposure
00033f08 g       *ABS*	00000000 __flash_rodata_start
00033f08 g       *ABS*	00000000 __DTOR_LIST__
000218ac g     F .text	00000060 initArray_u16
00032f10 g     F .text	00000040 alt_up_rs232_open_dev
0002f828 g     F .text	00000088 .hidden __nedf2
00031be4 g     F .text	00000038 alt_irq_init
0003177c g     F .text	00000064 alt_release_fd
00023710 g     F .text	00000130 MipiBridgeInit
00034764 g     O .rodata	00000100 .hidden __clz_tab
00038f48 g     O .bss	00000004 _PathLocale
000217a0 g     F .text	000000b8 appendArray_u8
00033b74 g     F .text	00000014 atexit
0002d2b0 g     F .text	00000060 _write_r
0002a478 g     F .text	00000018 setlocale
00036b8c g     O .rwdata	00000004 _impure_ptr
00038f58 g     O .bss	00000004 alt_argc
00023698 g     F .text	00000078 MipiBridgeRegRead
00029300 g     F .text	0000021c __sflush_r
00033384 g     F .text	00000060 _do_dtors
0002a464 g     F .text	00000008 __locale_cjk_lang
00036b68 g     O .rwdata	00000002 video_w
00038f20 g     O .bss	00000001 incl
00020020 g       .exceptions	00000000 alt_irq_entry
0002b504 g     F .text	00000064 __ulp
00029930 g     F .text	00000018 __fp_unlock_all
00021858 g     F .text	00000054 freeArray_u8
00038f21 g     O .bss	00000001 filter_id
00036b98 g     O .rwdata	00000008 alt_fs_list
000202ec g     F .text	00000058 Read32_Data
00032bbc g     F .text	0000005c alt_up_rs232_enable_read_interrupt
000208ac g     F .text	000001cc OC_I2C_Read
00032d38 g     F .text	00000040 alt_up_rs232_write_data
00020020 g       *ABS*	00000000 __ram_exceptions_start
00032808 g     F .text	00000040 alt_up_accelerometer_spi_open_dev
0002a490 g     F .text	0000000c localeconv
00038f22 g     O .bss	00000001 prompt
00038f24 g     O .bss	00000002 x_max
00036bc0 g       *ABS*	00000000 _edata
00039108 g       *ABS*	00000000 _end
00038f28 g     O .bss	00000004 x_drift
00023c78 g     F .text	000000bc OV8865ReadExposure
0002d52c g     F .text	00000164 __fputwc
00020248 g       *ABS*	00000000 __ram_exceptions_end
000321d8 g     F .text	000000f0 altera_avalon_jtag_uart_ioctl
00021af8 g     F .text	00000088 get_filter_id
00021a20 g     F .text	000000d8 filter_index
0002baac g     F .text	0000007c __swrite
00036b84 g     O .rwdata	00000004 __malloc_trim_threshold
00020a78 g     F .text	00000138 OC_I2C_Read_Continue
0002a458 g     F .text	0000000c __locale_msgcharset
00033b88 g     F .text	00000038 exit
00036b72 g     O .rwdata	00000001 focus_th
00038f2c g     O .bss	00000004 a
0002a2fc g     F .text	000000c4 _fwalk_reent
0002b308 g     F .text	000001fc __mdiff
00024420 g     F .text	00000074 .hidden __modsi3
00032af0 g     F .text	000000cc alt_up_accelerometer_spi_read_z_axis
0003f400 g       *ABS*	00000000 __alt_data_end
00020020 g     F .exceptions	00000000 alt_exception
0002990c g     F .text	00000004 __sfp_lock_release
000214b0 g     F .text	00000098 mipi_show_error_info
0002416c g     F .text	00000034 QUEUE_Delete
00038ff4 g     O .bss	0000000a filter_y_min
00020dc0 g     F .text	00000280 OC_I2CL_Read
00033ed4 g     F .text	00000034 _exit
00038eca g     O .bss	00000001 acc_ticks
00032f50 g     F .text	00000140 alt_alarm_start
0003288c g     F .text	00000068 alt_up_accelerometer_spi_read
000328f4 g     F .text	00000064 alt_up_accelerometer_spi_write
0002a49c g     F .text	000001bc __smakebuf_r
000255bc g     F .text	00000098 strlen
00033704 g     F .text	00000158 open
0002f8b0 g     F .text	000000dc .hidden __gedf2
00036b94 g     O .rwdata	00000004 __wctomb
0002bd64 g     F .text	00000018 __sprint_r
00033474 g     F .text	00000034 alt_icache_flush_all
00023acc g     F .text	000000e0 OV8865SetExposure
00036bb0 g     O .rwdata	00000004 alt_priority_mask
00036b6c g     O .rwdata	00000002 focus_width
0002784c g     F .text	0000001c __vfprintf_internal
00038ffe g     O .bss	0000000a filter_y_max
0002db88 g     F .text	0000005c _wctomb_r
000216c0 g     F .text	00000088 MIPI_Init
00030198 g     F .text	000008fc .hidden __subdf3
00038f30 g     O .bss	00000004 acc_dev
00030e98 g     F .text	00000120 fcntl
0002ad3c g     F .text	000000b0 __lo0bits
00036bb8 g     O .rwdata	00000008 alt_alarm_list
00033324 g     F .text	00000060 _do_ctors
00038ec6 g     O .bss	00000001 acc_calib
00032c78 g     F .text	00000040 alt_up_rs232_get_used_space_in_read_FIFO
0002da98 g     F .text	000000c0 wcrtomb
00030d4c g     F .text	000000d0 close
00038f34 g     O .bss	00000004 word
0002397c g     F .text	00000080 OV8865_read_AF
000313c4 g     F .text	00000084 alt_load
0002d6b4 g     F .text	00000080 fputwc
00021b80 g     F .text	000001cc send_ball_data
00024564 g     F .text	00000014 free
00029910 g     F .text	00000004 __sinit_lock_acquire
0002aab0 g     F .text	00000120 __multadd
0002aa88 g     F .text	00000028 _Bfree



Disassembly of section .entry:

00020000 <__reset>:
#if NIOS2_ICACHE_SIZE > 0 && defined(ALT_ALLOW_CODE_AT_RESET) && (!defined(ALT_SIM_OPTIMIZE) || defined(NIOS2_ECC_PRESENT))
    /* Assume the instruction cache size is always a power of two. */
#if NIOS2_ICACHE_SIZE > 0x8000
    movhi r2, %hi(NIOS2_ICACHE_SIZE)
#else
    movui r2, NIOS2_ICACHE_SIZE
   20000:	00840014 	movui	r2,4096
#endif

0:
    initi r2
   20004:	1001483a 	initi	r2
    addi r2, r2, -NIOS2_ICACHE_LINE_SIZE
   20008:	10bff804 	addi	r2,r2,-32
    bgt r2, zero, 0b
   2000c:	00bffd16 	blt	zero,r2,20004 <__alt_data_end+0xfffe0c04>
 * Jump to the _start entry point in the .text section if reset code
 * is allowed or if optimizing for RTL simulation.
 */
#if defined(ALT_ALLOW_CODE_AT_RESET) || defined(ALT_SIM_OPTIMIZE)
    /* Jump to the _start entry point in the .text section. */
    movhi r1, %hi(_start)
   20010:	004000b4 	movhi	at,2
    ori r1, r1, %lo(_start)
   20014:	08409214 	ori	at,at,584
    jmp r1
   20018:	0800683a 	jmp	at
   2001c:	00000000 	call	0 <__alt_mem_onchip_memory2_0-0x20000>

Disassembly of section .exceptions:

00020020 <alt_exception>:

#else /* ALT_EXCEPTION_STACK disabled */
        /* 
         * Reserve space on normal stack for registers about to be pushed.
         */
        addi  sp, sp, -76
   20020:	deffed04 	addi	sp,sp,-76
         * documentation for details).
         *
         * Leave a gap in the stack frame at 4(sp) for the muldiv handler to
         * store zero into.
         */
        stw   ra,  0(sp)
   20024:	dfc00015 	stw	ra,0(sp)
        stw   r1,   8(sp)
   20028:	d8400215 	stw	at,8(sp)
        stw   r2,  12(sp)
   2002c:	d8800315 	stw	r2,12(sp)
        stw   r3,  16(sp)
   20030:	d8c00415 	stw	r3,16(sp)
        stw   r4,  20(sp)
   20034:	d9000515 	stw	r4,20(sp)
        stw   r5,  24(sp)
   20038:	d9400615 	stw	r5,24(sp)
        stw   r6,  28(sp)
   2003c:	d9800715 	stw	r6,28(sp)
        stw   r7,  32(sp)
   20040:	d9c00815 	stw	r7,32(sp)
        rdctl r5, estatus   /* Read early to avoid usage stall */
   20044:	000b307a 	rdctl	r5,estatus
        stw   r8,  36(sp)
   20048:	da000915 	stw	r8,36(sp)
        stw   r9,  40(sp)
   2004c:	da400a15 	stw	r9,40(sp)
        stw   r10, 44(sp)
   20050:	da800b15 	stw	r10,44(sp)
        stw   r11, 48(sp)
   20054:	dac00c15 	stw	r11,48(sp)
        stw   r12, 52(sp)
   20058:	db000d15 	stw	r12,52(sp)
        stw   r13, 56(sp)
   2005c:	db400e15 	stw	r13,56(sp)
        stw   r14, 60(sp)
   20060:	db800f15 	stw	r14,60(sp)
        stw   r15, 64(sp)
   20064:	dbc01015 	stw	r15,64(sp)
        /*
         * ea-4 contains the address of the instruction being executed
         * when the exception occured. For interrupt exceptions, we will
         * will be re-issue the isntruction. Store it in 72(sp)
         */
        stw   r5,  68(sp)  /* estatus */
   20068:	d9401115 	stw	r5,68(sp)
        addi  r15, ea, -4  /* instruction that caused exception */
   2006c:	ebffff04 	addi	r15,ea,-4
        stw   r15,  72(sp)
   20070:	dbc01215 	stw	r15,72(sp)
#else
        /*
         * Test to see if the exception was a software exception or caused 
         * by an external interrupt, and vector accordingly.
         */
        rdctl r4, ipending
   20074:	0009313a 	rdctl	r4,ipending
        andi  r2, r5, 1
   20078:	2880004c 	andi	r2,r5,1
        beq   r2, zero, .Lnot_irq
   2007c:	10000326 	beq	r2,zero,2008c <alt_exception+0x6c>
        beq   r4, zero, .Lnot_irq
   20080:	20000226 	beq	r4,zero,2008c <alt_exception+0x6c>
        /*
         * Now that all necessary registers have been preserved, call 
         * alt_irq_handler() to process the interrupts.
         */

        call alt_irq_handler
   20084:	00200fc0 	call	200fc <alt_irq_handler>

        .section .exceptions.irqreturn, "xa"

        br    .Lexception_exit
   20088:	00000706 	br	200a8 <alt_exception+0x88>
         * upon completion, so we write ea (address of instruction *after*
         * the one where the exception occured) into 72(sp). The actual
         * instruction that caused the exception is written in r2, which these
         * handlers will utilize.
         */
        stw ea, 72(sp) /* EA is PC+4 so will skip over instruction causing exception */
   2008c:	df401215 	stw	ea,72(sp)
.Lunknown_16bit:
        addi.n r4, r4, 2 /* Need PC+2 to skip over instruction causing exception */
        stw r4, 72(sp)

#else /* CDX is not Enabled and all instructions are 32bits */
        ldw r2, -4(ea) /* Instruction value that caused exception */
   20090:	e8bfff17 	ldw	r2,-4(ea)
         * debugger is present) or go into an infinite loop since the
         * handling behavior is undefined; in that case we will not return here.
         */

        /* Load exception-causing address as first argument (r4) */
        addi   r4, ea, -4
   20094:	e93fff04 	addi	r4,ea,-4

        /* Call the instruction-exception entry */
        call   alt_instruction_exception_entry
   20098:	00201d40 	call	201d4 <alt_instruction_exception_entry>
         * instruction
         *
         * Return code was 0: Skip. The instruction after the exception is
         * already stored in 72(sp).
         */
        bne   r2, r0, .Lexception_exit
   2009c:	1000021e 	bne	r2,zero,200a8 <alt_exception+0x88>

        /*
         * Otherwise, modify 72(sp) to re-issue the instruction that caused the
         * exception.
         */
        addi  r15, ea, -4  /* instruction that caused exception */
   200a0:	ebffff04 	addi	r15,ea,-4
        stw   r15,  72(sp)
   200a4:	dbc01215 	stw	r15,72(sp)
        /* 
         * Restore the saved registers, so that all general purpose registers 
         * have been restored to their state at the time the interrupt occured.
         */

        ldw   r5,  68(sp)
   200a8:	d9401117 	ldw	r5,68(sp)
        ldw   ea,  72(sp)  /* This becomes the PC once eret is executed */
   200ac:	df401217 	ldw	ea,72(sp)
        ldw   ra,   0(sp)
   200b0:	dfc00017 	ldw	ra,0(sp)

        wrctl estatus, r5
   200b4:	2801707a 	wrctl	estatus,r5

        ldw   r1,   8(sp)
   200b8:	d8400217 	ldw	at,8(sp)
        ldw   r2,  12(sp)
   200bc:	d8800317 	ldw	r2,12(sp)
        ldw   r3,  16(sp)
   200c0:	d8c00417 	ldw	r3,16(sp)
        ldw   r4,  20(sp)
   200c4:	d9000517 	ldw	r4,20(sp)
        ldw   r5,  24(sp)
   200c8:	d9400617 	ldw	r5,24(sp)
        ldw   r6,  28(sp)
   200cc:	d9800717 	ldw	r6,28(sp)
        ldw   r7,  32(sp)
   200d0:	d9c00817 	ldw	r7,32(sp)

#if defined(ALT_EXCEPTION_STACK) && defined(ALT_STACK_CHECK)
        ldw   et, %gprel(alt_exception_old_stack_limit)(gp)
#endif

        ldw   r8,  36(sp)
   200d4:	da000917 	ldw	r8,36(sp)
        ldw   r9,  40(sp)
   200d8:	da400a17 	ldw	r9,40(sp)
        ldw   r10, 44(sp)
   200dc:	da800b17 	ldw	r10,44(sp)
        ldw   r11, 48(sp)
   200e0:	dac00c17 	ldw	r11,48(sp)
        ldw   r12, 52(sp)
   200e4:	db000d17 	ldw	r12,52(sp)
        ldw   r13, 56(sp)
   200e8:	db400e17 	ldw	r13,56(sp)
        ldw   r14, 60(sp)
   200ec:	db800f17 	ldw	r14,60(sp)
        ldw   r15, 64(sp)
   200f0:	dbc01017 	ldw	r15,64(sp)
        stw   et, %gprel(alt_stack_limit_value)(gp)
        stw   zero, %gprel(alt_exception_old_stack_limit)(gp)
#endif /* ALT_STACK_CHECK */
        ldw   sp,  76(sp)
#else /* ALT_EXCEPTION_STACK disabled */
        addi  sp, sp, 76
   200f4:	dec01304 	addi	sp,sp,76

        /*
         * Return to the interrupted instruction.
         */

        eret
   200f8:	ef80083a 	eret

000200fc <alt_irq_handler>:
 * instruction is present if the macro ALT_CI_INTERRUPT_VECTOR defined.
 */

void alt_irq_handler (void) __attribute__ ((section (".exceptions")));
void alt_irq_handler (void)
{
   200fc:	defff904 	addi	sp,sp,-28
   20100:	dfc00615 	stw	ra,24(sp)
   20104:	df000515 	stw	fp,20(sp)
   20108:	df000504 	addi	fp,sp,20
  
  /*
   * Notify the operating system that we are at interrupt level.
   */ 
  
  ALT_OS_INT_ENTER();
   2010c:	0001883a 	nop
#ifndef NIOS2_EIC_PRESENT
static ALT_INLINE alt_u32 ALT_ALWAYS_INLINE alt_irq_pending (void)
{
  alt_u32 active;

  NIOS2_READ_IPENDING (active);
   20110:	0005313a 	rdctl	r2,ipending
   20114:	e0bffe15 	stw	r2,-8(fp)

  return active;
   20118:	e0bffe17 	ldw	r2,-8(fp)
   * Consider the case where the high priority interupt is asserted during
   * the interrupt entry sequence for a lower priority interrupt to see why
   * this is the case.
   */

  active = alt_irq_pending ();
   2011c:	e0bffb15 	stw	r2,-20(fp)

  do
  {
    i = 0;
   20120:	e03ffd15 	stw	zero,-12(fp)
    mask = 1;
   20124:	00800044 	movi	r2,1
   20128:	e0bffc15 	stw	r2,-16(fp)
     * called to clear the interrupt condition.
     */

    do
    {
      if (active & mask)
   2012c:	e0fffb17 	ldw	r3,-20(fp)
   20130:	e0bffc17 	ldw	r2,-16(fp)
   20134:	1884703a 	and	r2,r3,r2
   20138:	10001526 	beq	r2,zero,20190 <alt_irq_handler+0x94>
      { 
#ifdef ALT_ENHANCED_INTERRUPT_API_PRESENT
        alt_irq[i].handler(alt_irq[i].context); 
#else
        alt_irq[i].handler(alt_irq[i].context, i); 
   2013c:	00800134 	movhi	r2,4
   20140:	10a40204 	addi	r2,r2,-28664
   20144:	e0fffd17 	ldw	r3,-12(fp)
   20148:	180690fa 	slli	r3,r3,3
   2014c:	10c5883a 	add	r2,r2,r3
   20150:	10c00017 	ldw	r3,0(r2)
   20154:	00800134 	movhi	r2,4
   20158:	10a40204 	addi	r2,r2,-28664
   2015c:	e13ffd17 	ldw	r4,-12(fp)
   20160:	200890fa 	slli	r4,r4,3
   20164:	1105883a 	add	r2,r2,r4
   20168:	10800104 	addi	r2,r2,4
   2016c:	10800017 	ldw	r2,0(r2)
   20170:	e17ffd17 	ldw	r5,-12(fp)
   20174:	1009883a 	mov	r4,r2
   20178:	183ee83a 	callr	r3
#endif
        break;
   2017c:	0001883a 	nop
#ifndef NIOS2_EIC_PRESENT
static ALT_INLINE alt_u32 ALT_ALWAYS_INLINE alt_irq_pending (void)
{
  alt_u32 active;

  NIOS2_READ_IPENDING (active);
   20180:	0005313a 	rdctl	r2,ipending
   20184:	e0bfff15 	stw	r2,-4(fp)

  return active;
   20188:	e0bfff17 	ldw	r2,-4(fp)
   2018c:	00000706 	br	201ac <alt_irq_handler+0xb0>
      }
      mask <<= 1;
   20190:	e0bffc17 	ldw	r2,-16(fp)
   20194:	1085883a 	add	r2,r2,r2
   20198:	e0bffc15 	stw	r2,-16(fp)
      i++;
   2019c:	e0bffd17 	ldw	r2,-12(fp)
   201a0:	10800044 	addi	r2,r2,1
   201a4:	e0bffd15 	stw	r2,-12(fp)

    } while (1);
   201a8:	003fe006 	br	2012c <__alt_data_end+0xfffe0d2c>

    active = alt_irq_pending ();
   201ac:	e0bffb15 	stw	r2,-20(fp)
    
  } while (active);
   201b0:	e0bffb17 	ldw	r2,-20(fp)
   201b4:	103fda1e 	bne	r2,zero,20120 <__alt_data_end+0xfffe0d20>

  /*
   * Notify the operating system that interrupt processing is complete.
   */ 

  ALT_OS_INT_EXIT();
   201b8:	0001883a 	nop
}
   201bc:	0001883a 	nop
   201c0:	e037883a 	mov	sp,fp
   201c4:	dfc00117 	ldw	ra,4(sp)
   201c8:	df000017 	ldw	fp,0(sp)
   201cc:	dec00204 	addi	sp,sp,8
   201d0:	f800283a 	ret

000201d4 <alt_instruction_exception_entry>:
 * that handler if it has been registered. Absent a handler, it will
 * break break or hang as discussed below.
 */
int 
alt_instruction_exception_entry (alt_u32 exception_pc)
{
   201d4:	defffb04 	addi	sp,sp,-20
   201d8:	dfc00415 	stw	ra,16(sp)
   201dc:	df000315 	stw	fp,12(sp)
   201e0:	df000304 	addi	fp,sp,12
   201e4:	e13fff15 	stw	r4,-4(fp)
 * NIOS2_EXCEPTION_CAUSE_NOT_PRESENT. Your handling routine should
 * check the validity of the cause argument before proceeding.
 */
#ifdef NIOS2_HAS_EXTRA_EXCEPTION_INFO
  /* Get exception cause & "badaddr" */
  NIOS2_READ_EXCEPTION(cause);
   201e8:	000531fa 	rdctl	r2,exception
   201ec:	e0bffd15 	stw	r2,-12(fp)
  cause = ( (cause & NIOS2_EXCEPTION_REG_CAUSE_MASK) >>
   201f0:	e0bffd17 	ldw	r2,-12(fp)
   201f4:	10801f0c 	andi	r2,r2,124
   201f8:	1004d0ba 	srli	r2,r2,2
   201fc:	e0bffd15 	stw	r2,-12(fp)
              NIOS2_EXCEPTION_REG_CAUSE_OFST );

  NIOS2_READ_BADADDR(badaddr);
   20200:	0005333a 	rdctl	r2,badaddr
   20204:	e0bffe15 	stw	r2,-8(fp)
#else
  cause = NIOS2_EXCEPTION_CAUSE_NOT_PRESENT;
  badaddr = 0;
#endif /* NIOS2_HAS_EXTRA_EXCEPTION_INFO */

  if(alt_instruction_exception_handler) {
   20208:	d0a90117 	ldw	r2,-23548(gp)
   2020c:	10000726 	beq	r2,zero,2022c <alt_instruction_exception_entry+0x58>
     * Call handler. Its return value indicates whether the exception-causing
     * instruction should be re-issued. The code that called us,
     * alt_eceptions_entry.S, will look at this value and adjust the ea
     * register as necessary
     */
    return alt_instruction_exception_handler(cause, exception_pc, badaddr);
   20210:	d0a90117 	ldw	r2,-23548(gp)
   20214:	e0fffd17 	ldw	r3,-12(fp)
   20218:	e1bffe17 	ldw	r6,-8(fp)
   2021c:	e17fff17 	ldw	r5,-4(fp)
   20220:	1809883a 	mov	r4,r3
   20224:	103ee83a 	callr	r2
   20228:	00000206 	br	20234 <alt_instruction_exception_entry+0x60>
   *    (a peripheral which negates its interrupt output before its
   *    interrupt handler has been executed will cause spurious interrupts)
   */
  else {
#ifdef NIOS2_HAS_DEBUG_STUB
    NIOS2_BREAK();
   2022c:	003da03a 	break	0
      ;
#endif /* NIOS2_HAS_DEBUG_STUB */
  }

  /* We should not get here. Remove compiler warning. */
  return NIOS2_EXCEPTION_RETURN_REISSUE_INST;
   20230:	0005883a 	mov	r2,zero
}
   20234:	e037883a 	mov	sp,fp
   20238:	dfc00117 	ldw	ra,4(sp)
   2023c:	df000017 	ldw	fp,0(sp)
   20240:	dec00204 	addi	sp,sp,8
   20244:	f800283a 	ret

Disassembly of section .text:

00020248 <_start>:

    /* Assume the data cache size is always a power of two. */
#if NIOS2_DCACHE_SIZE > 0x8000
    movhi r2, %hi(NIOS2_DCACHE_SIZE)
#else
    movui r2, NIOS2_DCACHE_SIZE
   20248:	00820014 	movui	r2,2048
#endif

0:
    initd 0(r2)
   2024c:	10000033 	initd	0(r2)
#ifdef NIOS2_ECC_PRESENT
    addi r2, r2, -4
#else
    addi r2, r2, -NIOS2_DCACHE_LINE_SIZE
   20250:	10bff804 	addi	r2,r2,-32
#endif
    bgt r2, zero, 0b
   20254:	00bffd16 	blt	zero,r2,2024c <__alt_data_end+0xfffe0e4c>

    /*
     * Now that the caches are initialized, set up the stack pointer and global pointer.
     * The values provided by the linker are assumed to be correctly aligned.
     */
    movhi sp, %hi(__alt_stack_pointer)
   20258:	06c000f4 	movhi	sp,3
    ori sp, sp, %lo(__alt_stack_pointer)
   2025c:	defd0014 	ori	sp,sp,62464
    movhi gp, %hi(_gp)
   20260:	068000f4 	movhi	gp,3
    ori gp, gp, %lo(_gp)
   20264:	d6bada14 	ori	gp,gp,60264
 */
#ifndef ALT_SIM_OPTIMIZE
    /* Log that the BSS is about to be cleared. */
    ALT_LOG_PUTS(alt_log_msg_bss)

    movhi r2, %hi(__bss_start)
   20268:	008000f4 	movhi	r2,3
    ori r2, r2, %lo(__bss_start)
   2026c:	10a3b114 	ori	r2,r2,36548

    movhi r3, %hi(__bss_end)
   20270:	00c000f4 	movhi	r3,3
    ori r3, r3, %lo(__bss_end)
   20274:	18e44214 	ori	r3,r3,37128

    beq r2, r3, 1f
   20278:	10c00326 	beq	r2,r3,20288 <_start+0x40>

0:
    stw zero, (r2)
   2027c:	10000015 	stw	zero,0(r2)
    addi r2, r2, 4
   20280:	10800104 	addi	r2,r2,4
    bltu r2, r3, 0b
   20284:	10fffd36 	bltu	r2,r3,2027c <__alt_data_end+0xfffe0e7c>
     * section aren't defined until alt_load() has been called).
     */
    mov   et, zero
#endif

    call alt_load
   20288:	00313c40 	call	313c4 <alt_load>

    /* Log that alt_main is about to be called. */
    ALT_LOG_PUTS(alt_log_msg_alt_main)

    /* Call the C entry point. It should never return. */
    call alt_main
   2028c:	003156c0 	call	3156c <alt_main>

00020290 <alt_after_alt_main>:

    /* Wait in infinite loop in case alt_main does return. */
alt_after_alt_main:
    br alt_after_alt_main
   20290:	003fff06 	br	20290 <__alt_data_end+0xfffe0e90>

00020294 <Write32_Data>:
#define SLEEP_TIME 250  //us
#define ACK_SLEEP_TIME 250 //us
#define TRUE 1
#define FALSE 0

bool Write32_Data(alt_32 base_address, alt_32 offset_address, alt_32 Data){
   20294:	defffb04 	addi	sp,sp,-20
   20298:	df000415 	stw	fp,16(sp)
   2029c:	df000404 	addi	fp,sp,16
   202a0:	e13ffd15 	stw	r4,-12(fp)
   202a4:	e17ffe15 	stw	r5,-8(fp)
   202a8:	e1bfff15 	stw	r6,-4(fp)
	bool bPass;
    IOWR(base_address, offset_address,Data);
   202ac:	e0bffe17 	ldw	r2,-8(fp)
   202b0:	1085883a 	add	r2,r2,r2
   202b4:	1085883a 	add	r2,r2,r2
   202b8:	1007883a 	mov	r3,r2
   202bc:	e0bffd17 	ldw	r2,-12(fp)
   202c0:	1885883a 	add	r2,r3,r2
   202c4:	1007883a 	mov	r3,r2
   202c8:	e0bfff17 	ldw	r2,-4(fp)
   202cc:	18800035 	stwio	r2,0(r3)
    bPass=TRUE;
   202d0:	00800044 	movi	r2,1
   202d4:	e0bffc15 	stw	r2,-16(fp)
    return bPass;
   202d8:	e0bffc17 	ldw	r2,-16(fp)
}
   202dc:	e037883a 	mov	sp,fp
   202e0:	df000017 	ldw	fp,0(sp)
   202e4:	dec00104 	addi	sp,sp,4
   202e8:	f800283a 	ret

000202ec <Read32_Data>:



bool  Read32_Data(alt_32 base_address, alt_32 offset_address, alt_32 *pData32){
   202ec:	defffb04 	addi	sp,sp,-20
   202f0:	df000415 	stw	fp,16(sp)
   202f4:	df000404 	addi	fp,sp,16
   202f8:	e13ffd15 	stw	r4,-12(fp)
   202fc:	e17ffe15 	stw	r5,-8(fp)
   20300:	e1bfff15 	stw	r6,-4(fp)
	bool bPass;
	*pData32 =IORD(base_address ,offset_address  );
   20304:	e0bffe17 	ldw	r2,-8(fp)
   20308:	1085883a 	add	r2,r2,r2
   2030c:	1085883a 	add	r2,r2,r2
   20310:	1007883a 	mov	r3,r2
   20314:	e0bffd17 	ldw	r2,-12(fp)
   20318:	1885883a 	add	r2,r3,r2
   2031c:	10c00037 	ldwio	r3,0(r2)
   20320:	e0bfff17 	ldw	r2,-4(fp)
   20324:	10c00015 	stw	r3,0(r2)
	bPass=TRUE;
   20328:	00800044 	movi	r2,1
   2032c:	e0bffc15 	stw	r2,-16(fp)
    return bPass;
   20330:	e0bffc17 	ldw	r2,-16(fp)
}
   20334:	e037883a 	mov	sp,fp
   20338:	df000017 	ldw	fp,0(sp)
   2033c:	dec00104 	addi	sp,sp,4
   20340:	f800283a 	ret

00020344 <oc_i2c_init>:

bool oc_i2c_init(alt_32 i2c_base){
   20344:	defffa04 	addi	sp,sp,-24
   20348:	dfc00515 	stw	ra,20(sp)
   2034c:	df000415 	stw	fp,16(sp)
   20350:	df000404 	addi	fp,sp,16
   20354:	e13fff15 	stw	r4,-4(fp)
	bool bSuccess;
	const alt_32 ref_clk = 50*1000*1000; // 50MHz
   20358:	0080bef4 	movhi	r2,763
   2035c:	10bc2004 	addi	r2,r2,-3968
   20360:	e0bffc15 	stw	r2,-16(fp)
	const alt_32 i2c_clk = 400*1000; // 400KHz
   20364:	008001b4 	movhi	r2,6
   20368:	1086a004 	addi	r2,r2,6784
   2036c:	e0bffd15 	stw	r2,-12(fp)

	bSuccess = oc_i2c_init_ex(i2c_base, ref_clk, i2c_clk);
   20370:	e1bffd17 	ldw	r6,-12(fp)
   20374:	e17ffc17 	ldw	r5,-16(fp)
   20378:	e13fff17 	ldw	r4,-4(fp)
   2037c:	002039c0 	call	2039c <oc_i2c_init_ex>
   20380:	e0bffe15 	stw	r2,-8(fp)

	return bSuccess;
   20384:	e0bffe17 	ldw	r2,-8(fp)
}
   20388:	e037883a 	mov	sp,fp
   2038c:	dfc00117 	ldw	ra,4(sp)
   20390:	df000017 	ldw	fp,0(sp)
   20394:	dec00204 	addi	sp,sp,8
   20398:	f800283a 	ret

0002039c <oc_i2c_init_ex>:

bool  oc_i2c_init_ex(alt_32 i2c_base, alt_32 ref_clk, alt_32 i2c_clk)
{
   2039c:	defff604 	addi	sp,sp,-40
   203a0:	dfc00915 	stw	ra,36(sp)
   203a4:	df000815 	stw	fp,32(sp)
   203a8:	df000804 	addi	fp,sp,32
   203ac:	e13ffd15 	stw	r4,-12(fp)
   203b0:	e17ffe15 	stw	r5,-8(fp)
   203b4:	e1bfff15 	stw	r6,-4(fp)
	bool bSuccess=TRUE;
   203b8:	00800044 	movi	r2,1
   203bc:	e0bff815 	stw	r2,-32(fp)
	alt_32 read_data;
	alt_32 prescale;
	alt_u8 prescale_high;
	alt_u8 prescale_low;
	const alt_u8 ControlValue = 0x80;
   203c0:	00bfe004 	movi	r2,-128
   203c4:	e0bff905 	stb	r2,-28(fp)

    // I2c sysclock =50M hz
	// i2c scl max 400k
	//scl =sysclock/(prescale*5)
	prescale = (ref_clk/(5*i2c_clk))-1;
   203c8:	e0bfff17 	ldw	r2,-4(fp)
   203cc:	10800164 	muli	r2,r2,5
   203d0:	100b883a 	mov	r5,r2
   203d4:	e13ffe17 	ldw	r4,-8(fp)
   203d8:	002439c0 	call	2439c <__divsi3>
   203dc:	10bfffc4 	addi	r2,r2,-1
   203e0:	e0bffa15 	stw	r2,-24(fp)
	prescale_low = prescale & 0xFF;
   203e4:	e0bffa17 	ldw	r2,-24(fp)
   203e8:	e0bffb05 	stb	r2,-20(fp)
	prescale_high = (prescale >> 8) & 0xFF;
   203ec:	e0bffa17 	ldw	r2,-24(fp)
   203f0:	1005d23a 	srai	r2,r2,8
   203f4:	e0bffb45 	stb	r2,-19(fp)

   IOWR(i2c_base, 0, prescale_low);//write low byte of  prescale (reg 0)
   203f8:	e0bffd17 	ldw	r2,-12(fp)
   203fc:	e0fffb03 	ldbu	r3,-20(fp)
   20400:	10c00035 	stwio	r3,0(r2)
   IOWR(i2c_base, 1, prescale_high);//write high byte of prescale (reg 1)
   20404:	e0bffd17 	ldw	r2,-12(fp)
   20408:	10800104 	addi	r2,r2,4
   2040c:	1007883a 	mov	r3,r2
   20410:	e0bffb43 	ldbu	r2,-19(fp)
   20414:	18800035 	stwio	r2,0(r3)

   //enable the I2C core, but disable the IRQ
   IOWR( i2c_base, 2, ControlValue);
   20418:	e0bffd17 	ldw	r2,-12(fp)
   2041c:	10800204 	addi	r2,r2,8
   20420:	1007883a 	mov	r3,r2
   20424:	e0bff903 	ldbu	r2,-28(fp)
   20428:	18800035 	stwio	r2,0(r3)


    // check prescale low byte
    if (bSuccess){
   2042c:	e0bff817 	ldw	r2,-32(fp)
   20430:	10000826 	beq	r2,zero,20454 <oc_i2c_init_ex+0xb8>
    	read_data =IORD(i2c_base, 0);
   20434:	e0bffd17 	ldw	r2,-12(fp)
   20438:	10800037 	ldwio	r2,0(r2)
   2043c:	e0bffc15 	stw	r2,-16(fp)
        if( (read_data & 0x00ff) != prescale_low ){
   20440:	e0bffc17 	ldw	r2,-16(fp)
   20444:	10c03fcc 	andi	r3,r2,255
   20448:	e0bffb03 	ldbu	r2,-20(fp)
   2044c:	18800126 	beq	r3,r2,20454 <oc_i2c_init_ex+0xb8>
            bSuccess = FALSE;
   20450:	e03ff815 	stw	zero,-32(fp)
        }
    }

    // check prescale high byte
    if (bSuccess){
   20454:	e0bff817 	ldw	r2,-32(fp)
   20458:	10000926 	beq	r2,zero,20480 <oc_i2c_init_ex+0xe4>
    	read_data =IORD(i2c_base, 1);
   2045c:	e0bffd17 	ldw	r2,-12(fp)
   20460:	10800104 	addi	r2,r2,4
   20464:	10800037 	ldwio	r2,0(r2)
   20468:	e0bffc15 	stw	r2,-16(fp)
        if( (read_data & 0x00ff) != prescale_high ){
   2046c:	e0bffc17 	ldw	r2,-16(fp)
   20470:	10c03fcc 	andi	r3,r2,255
   20474:	e0bffb43 	ldbu	r2,-19(fp)
   20478:	18800126 	beq	r3,r2,20480 <oc_i2c_init_ex+0xe4>
            bSuccess = FALSE;
   2047c:	e03ff815 	stw	zero,-32(fp)
        }
    }

    // check control
    if (bSuccess){
   20480:	e0bff817 	ldw	r2,-32(fp)
   20484:	10000926 	beq	r2,zero,204ac <oc_i2c_init_ex+0x110>
    	read_data =IORD(i2c_base, 2);
   20488:	e0bffd17 	ldw	r2,-12(fp)
   2048c:	10800204 	addi	r2,r2,8
   20490:	10800037 	ldwio	r2,0(r2)
   20494:	e0bffc15 	stw	r2,-16(fp)
        if( (read_data & 0x00ff) != ControlValue ){
   20498:	e0bffc17 	ldw	r2,-16(fp)
   2049c:	10c03fcc 	andi	r3,r2,255
   204a0:	e0bff903 	ldbu	r2,-28(fp)
   204a4:	18800126 	beq	r3,r2,204ac <oc_i2c_init_ex+0x110>
            bSuccess = FALSE;
   204a8:	e03ff815 	stw	zero,-32(fp)
        }
    }

   if (bSuccess){
   204ac:	e0bff817 	ldw	r2,-32(fp)
   204b0:	1000031e 	bne	r2,zero,204c0 <oc_i2c_init_ex+0x124>
//       printf("\nI2C core is enabled! \r\n");
   }
   else
       printf("\nI2C core is not enabled successfully! \r\n");
   204b4:	010000f4 	movhi	r4,3
   204b8:	210fc204 	addi	r4,r4,16136
   204bc:	0024fd80 	call	24fd8 <puts>

   return bSuccess;
   204c0:	e0bff817 	ldw	r2,-32(fp)

}
   204c4:	e037883a 	mov	sp,fp
   204c8:	dfc00117 	ldw	ra,4(sp)
   204cc:	df000017 	ldw	fp,0(sp)
   204d0:	dec00204 	addi	sp,sp,8
   204d4:	f800283a 	ret

000204d8 <oc_i2c_uninit>:

bool oc_i2c_uninit(alt_32 i2c_base)
{
   204d8:	defffa04 	addi	sp,sp,-24
   204dc:	dfc00515 	stw	ra,20(sp)
   204e0:	df000415 	stw	fp,16(sp)
   204e4:	df000404 	addi	fp,sp,16
   204e8:	e13fff15 	stw	r4,-4(fp)
	bool bSuccess=TRUE;
   204ec:	00800044 	movi	r2,1
   204f0:	e0bffc15 	stw	r2,-16(fp)
	alt_32 read_data;
	const alt_u8 ControlValue = 0x00;
   204f4:	e03ffd05 	stb	zero,-12(fp)

    IOWR( i2c_base, 2, ControlValue);
   204f8:	e0bfff17 	ldw	r2,-4(fp)
   204fc:	10800204 	addi	r2,r2,8
   20500:	1007883a 	mov	r3,r2
   20504:	e0bffd03 	ldbu	r2,-12(fp)
   20508:	18800035 	stwio	r2,0(r3)
   	read_data =IORD(i2c_base, 2);
   2050c:	e0bfff17 	ldw	r2,-4(fp)
   20510:	10800204 	addi	r2,r2,8
   20514:	10800037 	ldwio	r2,0(r2)
   20518:	e0bffe15 	stw	r2,-8(fp)
	if( (read_data & 0x00ff) != ControlValue ){
   2051c:	e0bffe17 	ldw	r2,-8(fp)
   20520:	10c03fcc 	andi	r3,r2,255
   20524:	e0bffd03 	ldbu	r2,-12(fp)
   20528:	18800126 	beq	r3,r2,20530 <oc_i2c_uninit+0x58>
            bSuccess = FALSE;
   2052c:	e03ffc15 	stw	zero,-16(fp)
    }

   if (bSuccess){
   20530:	e0bffc17 	ldw	r2,-16(fp)
   20534:	1000031e 	bne	r2,zero,20544 <oc_i2c_uninit+0x6c>
//       printf("\I2C core  is disabled! \r\n");
   }
   else
       printf("\I2C core is failed to disable! \r\n");
   20538:	010000f4 	movhi	r4,3
   2053c:	210fcd04 	addi	r4,r4,16180
   20540:	0024fd80 	call	24fd8 <puts>

   return bSuccess;
   20544:	e0bffc17 	ldw	r2,-16(fp)

}
   20548:	e037883a 	mov	sp,fp
   2054c:	dfc00117 	ldw	ra,4(sp)
   20550:	df000017 	ldw	fp,0(sp)
   20554:	dec00204 	addi	sp,sp,8
   20558:	f800283a 	ret

0002055c <ACK_single_check>:




bool  ACK_single_check(alt_32 i2c_base)
{
   2055c:	defffb04 	addi	sp,sp,-20
   20560:	dfc00415 	stw	ra,16(sp)
   20564:	df000315 	stw	fp,12(sp)
   20568:	df000304 	addi	fp,sp,12
   2056c:	e13fff15 	stw	r4,-4(fp)
	bool bSuccess=TRUE;
   20570:	00800044 	movi	r2,1
   20574:	e0bffd15 	stw	r2,-12(fp)
	alt_32 read_data;

    usleep(ACK_SLEEP_TIME);
   20578:	01003e84 	movi	r4,250
   2057c:	0031a340 	call	31a34 <usleep>
    read_data =IORD(i2c_base, 4);
   20580:	e0bfff17 	ldw	r2,-4(fp)
   20584:	10800404 	addi	r2,r2,16
   20588:	10800037 	ldwio	r2,0(r2)
   2058c:	e0bffe15 	stw	r2,-8(fp)
    if(read_data & 0x02)
   20590:	e0bffe17 	ldw	r2,-8(fp)
   20594:	1080008c 	andi	r2,r2,2
   20598:	10000126 	beq	r2,zero,205a0 <ACK_single_check+0x44>
            bSuccess = FALSE;
   2059c:	e03ffd15 	stw	zero,-12(fp)
     if (bSuccess){
   205a0:	e0bffd17 	ldw	r2,-12(fp)
   205a4:	10000a26 	beq	r2,zero,205d0 <ACK_single_check+0x74>
            usleep(ACK_SLEEP_TIME);
   205a8:	01003e84 	movi	r4,250
   205ac:	0031a340 	call	31a34 <usleep>
            read_data =IORD(i2c_base, 4);
   205b0:	e0bfff17 	ldw	r2,-4(fp)
   205b4:	10800404 	addi	r2,r2,16
   205b8:	10800037 	ldwio	r2,0(r2)
   205bc:	e0bffe15 	stw	r2,-8(fp)
                if(read_data & 0x80)
   205c0:	e0bffe17 	ldw	r2,-8(fp)
   205c4:	1080200c 	andi	r2,r2,128
   205c8:	10000126 	beq	r2,zero,205d0 <ACK_single_check+0x74>
                    bSuccess = FALSE;
   205cc:	e03ffd15 	stw	zero,-12(fp)
     }
    return bSuccess;
   205d0:	e0bffd17 	ldw	r2,-12(fp)
}
   205d4:	e037883a 	mov	sp,fp
   205d8:	dfc00117 	ldw	ra,4(sp)
   205dc:	df000017 	ldw	fp,0(sp)
   205e0:	dec00204 	addi	sp,sp,8
   205e4:	f800283a 	ret

000205e8 <ACK_check>:


bool  ACK_check(alt_32 i2c_base){
   205e8:	defffb04 	addi	sp,sp,-20
   205ec:	dfc00415 	stw	ra,16(sp)
   205f0:	df000315 	stw	fp,12(sp)
   205f4:	df000304 	addi	fp,sp,12
   205f8:	e13fff15 	stw	r4,-4(fp)
    bool bSuccess = FALSE;
   205fc:	e03ffd15 	stw	zero,-12(fp)
    int i=0;
   20600:	e03ffe15 	stw	zero,-8(fp)

    while(!bSuccess && i++ < 10){
   20604:	00000306 	br	20614 <ACK_check+0x2c>
        bSuccess = ACK_single_check(i2c_base);
   20608:	e13fff17 	ldw	r4,-4(fp)
   2060c:	002055c0 	call	2055c <ACK_single_check>
   20610:	e0bffd15 	stw	r2,-12(fp)

bool  ACK_check(alt_32 i2c_base){
    bool bSuccess = FALSE;
    int i=0;

    while(!bSuccess && i++ < 10){
   20614:	e0bffd17 	ldw	r2,-12(fp)
   20618:	1000051e 	bne	r2,zero,20630 <ACK_check+0x48>
   2061c:	e0bffe17 	ldw	r2,-8(fp)
   20620:	10c00044 	addi	r3,r2,1
   20624:	e0fffe15 	stw	r3,-8(fp)
   20628:	10800290 	cmplti	r2,r2,10
   2062c:	103ff61e 	bne	r2,zero,20608 <__alt_data_end+0xfffe1208>
        bSuccess = ACK_single_check(i2c_base);
    }

    return bSuccess;
   20630:	e0bffd17 	ldw	r2,-12(fp)
}
   20634:	e037883a 	mov	sp,fp
   20638:	dfc00117 	ldw	ra,4(sp)
   2063c:	df000017 	ldw	fp,0(sp)
   20640:	dec00204 	addi	sp,sp,8
   20644:	f800283a 	ret

00020648 <OC_I2C_Write>:

bool  OC_I2C_Write(alt_32 i2c_base,alt_u8 device_address,alt_u8 sub_address, alt_u8 *pData, int nWriteLength)
{
   20648:	defff904 	addi	sp,sp,-28
   2064c:	dfc00615 	stw	ra,24(sp)
   20650:	df000515 	stw	fp,20(sp)
   20654:	df000504 	addi	fp,sp,20
   20658:	e13ffc15 	stw	r4,-16(fp)
   2065c:	2807883a 	mov	r3,r5
   20660:	3005883a 	mov	r2,r6
   20664:	e1ffff15 	stw	r7,-4(fp)
   20668:	e0fffd05 	stb	r3,-12(fp)
   2066c:	e0bffe05 	stb	r2,-8(fp)
    //DWORD reg_data = 0x0;
    int i;

   //set the tx reg audio chip dev address with write bit
   if (!Write32_Data( i2c_base, 3,device_address)){
   20670:	e0bffd03 	ldbu	r2,-12(fp)
   20674:	100d883a 	mov	r6,r2
   20678:	014000c4 	movi	r5,3
   2067c:	e13ffc17 	ldw	r4,-16(fp)
   20680:	00202940 	call	20294 <Write32_Data>
   20684:	1000051e 	bne	r2,zero,2069c <OC_I2C_Write+0x54>
       printf("OC_I2C_Write error[0]\r\n");
   20688:	010000f4 	movhi	r4,3
   2068c:	210fd604 	addi	r4,r4,16216
   20690:	0024fd80 	call	24fd8 <puts>
       return FALSE;
   20694:	0005883a 	mov	r2,zero
   20698:	00006606 	br	20834 <OC_I2C_Write+0x1ec>
   }
   //set STA and WR bits(bit7 and bit4)
   if (!Write32_Data( i2c_base, 4,0x90)){
   2069c:	01802404 	movi	r6,144
   206a0:	01400104 	movi	r5,4
   206a4:	e13ffc17 	ldw	r4,-16(fp)
   206a8:	00202940 	call	20294 <Write32_Data>
   206ac:	1000051e 	bne	r2,zero,206c4 <OC_I2C_Write+0x7c>
       printf("OC_I2C_Write error[1]\r\n");
   206b0:	010000f4 	movhi	r4,3
   206b4:	210fdc04 	addi	r4,r4,16240
   206b8:	0024fd80 	call	24fd8 <puts>
       return FALSE;
   206bc:	0005883a 	mov	r2,zero
   206c0:	00005c06 	br	20834 <OC_I2C_Write+0x1ec>
   }

   //wait TIP bit go to 0 to end Tx
    if(!ACK_check( i2c_base)){
   206c4:	e13ffc17 	ldw	r4,-16(fp)
   206c8:	00205e80 	call	205e8 <ACK_check>
   206cc:	1000051e 	bne	r2,zero,206e4 <OC_I2C_Write+0x9c>
        printf("OC_I2C_Write error[2]\r\n");
   206d0:	010000f4 	movhi	r4,3
   206d4:	210fe204 	addi	r4,r4,16264
   206d8:	0024fd80 	call	24fd8 <puts>
        return FALSE;
   206dc:	0005883a 	mov	r2,zero
   206e0:	00005406 	br	20834 <OC_I2C_Write+0x1ec>
    }
  // printf("\n receive ACK-device address! \n");

   //set the txr reg data with reg address + 1 data MSB
   if (!Write32_Data( i2c_base, 3,sub_address)){
   206e4:	e0bffe03 	ldbu	r2,-8(fp)
   206e8:	100d883a 	mov	r6,r2
   206ec:	014000c4 	movi	r5,3
   206f0:	e13ffc17 	ldw	r4,-16(fp)
   206f4:	00202940 	call	20294 <Write32_Data>
   206f8:	1000051e 	bne	r2,zero,20710 <OC_I2C_Write+0xc8>
       printf("OC_I2C_Write error[3]\r\n");
   206fc:	010000f4 	movhi	r4,3
   20700:	210fe804 	addi	r4,r4,16288
   20704:	0024fd80 	call	24fd8 <puts>
       return FALSE;
   20708:	0005883a 	mov	r2,zero
   2070c:	00004906 	br	20834 <OC_I2C_Write+0x1ec>
   }

   //set WR bits(bit4)
    if (!Write32_Data( i2c_base, 4,0x10)){
   20710:	01800404 	movi	r6,16
   20714:	01400104 	movi	r5,4
   20718:	e13ffc17 	ldw	r4,-16(fp)
   2071c:	00202940 	call	20294 <Write32_Data>
   20720:	1000051e 	bne	r2,zero,20738 <OC_I2C_Write+0xf0>
        printf("OC_I2C_Write error[4]\r\n");
   20724:	010000f4 	movhi	r4,3
   20728:	210fee04 	addi	r4,r4,16312
   2072c:	0024fd80 	call	24fd8 <puts>
        return FALSE;
   20730:	0005883a 	mov	r2,zero
   20734:	00003f06 	br	20834 <OC_I2C_Write+0x1ec>
    }

   //wait TIP bit go to 0 to end Tx
    if(!ACK_check( i2c_base)){
   20738:	e13ffc17 	ldw	r4,-16(fp)
   2073c:	00205e80 	call	205e8 <ACK_check>
   20740:	1000051e 	bne	r2,zero,20758 <OC_I2C_Write+0x110>
        printf("OC_I2C_Write error[5]\r\n");
   20744:	010000f4 	movhi	r4,3
   20748:	210ff404 	addi	r4,r4,16336
   2074c:	0024fd80 	call	24fd8 <puts>
        return FALSE;
   20750:	0005883a 	mov	r2,zero
   20754:	00003706 	br	20834 <OC_I2C_Write+0x1ec>
    }
 //  printf("\n receive ACK-reg address! \n");

#if 1
        for( i=nWriteLength-1;i>=0;i--){
   20758:	e0800217 	ldw	r2,8(fp)
   2075c:	10bfffc4 	addi	r2,r2,-1
   20760:	e0bffb15 	stw	r2,-20(fp)
   20764:	00002406 	br	207f8 <OC_I2C_Write+0x1b0>
        //set the txr reg data with the data
          if (!Write32_Data( i2c_base, 3,*(pData+i))){
   20768:	e0bffb17 	ldw	r2,-20(fp)
   2076c:	e0ffff17 	ldw	r3,-4(fp)
   20770:	1885883a 	add	r2,r3,r2
   20774:	10800003 	ldbu	r2,0(r2)
   20778:	10803fcc 	andi	r2,r2,255
   2077c:	100d883a 	mov	r6,r2
   20780:	014000c4 	movi	r5,3
   20784:	e13ffc17 	ldw	r4,-16(fp)
   20788:	00202940 	call	20294 <Write32_Data>
   2078c:	1000051e 	bne	r2,zero,207a4 <OC_I2C_Write+0x15c>
              printf("OC_I2C_Write error[6]\r\n");
   20790:	010000f4 	movhi	r4,3
   20794:	210ffa04 	addi	r4,r4,16360
   20798:	0024fd80 	call	24fd8 <puts>
              return FALSE;
   2079c:	0005883a 	mov	r2,zero
   207a0:	00002406 	br	20834 <OC_I2C_Write+0x1ec>
          }

        //set STO and WR bits(bit7 and bit4)
         if (!Write32_Data( i2c_base, 4,0x10)){
   207a4:	01800404 	movi	r6,16
   207a8:	01400104 	movi	r5,4
   207ac:	e13ffc17 	ldw	r4,-16(fp)
   207b0:	00202940 	call	20294 <Write32_Data>
   207b4:	1000051e 	bne	r2,zero,207cc <OC_I2C_Write+0x184>
             printf("OC_I2C_Write error[7]\r\n");
   207b8:	010000f4 	movhi	r4,3
   207bc:	21100004 	addi	r4,r4,16384
   207c0:	0024fd80 	call	24fd8 <puts>
              return FALSE;
   207c4:	0005883a 	mov	r2,zero
   207c8:	00001a06 	br	20834 <OC_I2C_Write+0x1ec>
         }

         //wait TIP bit go to 0 to end Tx
          if(!ACK_check( i2c_base)){
   207cc:	e13ffc17 	ldw	r4,-16(fp)
   207d0:	00205e80 	call	205e8 <ACK_check>
   207d4:	1000051e 	bne	r2,zero,207ec <OC_I2C_Write+0x1a4>
              printf("OC_I2C_Write error[8]\r\n");
   207d8:	010000f4 	movhi	r4,3
   207dc:	21100604 	addi	r4,r4,16408
   207e0:	0024fd80 	call	24fd8 <puts>
              return FALSE;
   207e4:	0005883a 	mov	r2,zero
   207e8:	00001206 	br	20834 <OC_I2C_Write+0x1ec>
        return FALSE;
    }
 //  printf("\n receive ACK-reg address! \n");

#if 1
        for( i=nWriteLength-1;i>=0;i--){
   207ec:	e0bffb17 	ldw	r2,-20(fp)
   207f0:	10bfffc4 	addi	r2,r2,-1
   207f4:	e0bffb15 	stw	r2,-20(fp)
   207f8:	e0bffb17 	ldw	r2,-20(fp)
   207fc:	103fda0e 	bge	r2,zero,20768 <__alt_data_end+0xfffe1368>
   //wait TIP bit go to 0 to end Tx
    if(!ACK_check( i2c_base))
        return false;
#endif

     if (!Write32_Data( i2c_base, 4,0x40)){
   20800:	01801004 	movi	r6,64
   20804:	01400104 	movi	r5,4
   20808:	e13ffc17 	ldw	r4,-16(fp)
   2080c:	00202940 	call	20294 <Write32_Data>
   20810:	1000051e 	bne	r2,zero,20828 <OC_I2C_Write+0x1e0>
         printf("OC_I2C_Write error[9]\r\n");
   20814:	010000f4 	movhi	r4,3
   20818:	21100c04 	addi	r4,r4,16432
   2081c:	0024fd80 	call	24fd8 <puts>
         return FALSE;
   20820:	0005883a 	mov	r2,zero
   20824:	00000306 	br	20834 <OC_I2C_Write+0x1ec>
     }
         //Sleep(10);
     //OS_msleep(1);
     usleep(SLEEP_TIME);
   20828:	01003e84 	movi	r4,250
   2082c:	0031a340 	call	31a34 <usleep>

  // printf("\n receive ACK-data! \n");

     return TRUE;
   20830:	00800044 	movi	r2,1

}
   20834:	e037883a 	mov	sp,fp
   20838:	dfc00117 	ldw	ra,4(sp)
   2083c:	df000017 	ldw	fp,0(sp)
   20840:	dec00204 	addi	sp,sp,8
   20844:	f800283a 	ret

00020848 <ACK_judge_for_read>:


bool ACK_judge_for_read(alt_32 i2c_base)
{
   20848:	defffb04 	addi	sp,sp,-20
   2084c:	dfc00415 	stw	ra,16(sp)
   20850:	df000315 	stw	fp,12(sp)
   20854:	df000304 	addi	fp,sp,12
   20858:	e13fff15 	stw	r4,-4(fp)
	bool bSuccess;
    alt_32 this_data;

   // OS_msleep( SLEEP_TIME );
     usleep(ACK_SLEEP_TIME);
   2085c:	01003e84 	movi	r4,250
   20860:	0031a340 	call	31a34 <usleep>
    //   while(this_data & 0x02)
//   {
//      this_data =  Read32_Data ( hPCIe, i2c_base, 4);
//   }
    bSuccess =  Read32_Data ( i2c_base, 4, &this_data);
   20864:	e0bffe04 	addi	r2,fp,-8
   20868:	100d883a 	mov	r6,r2
   2086c:	01400104 	movi	r5,4
   20870:	e13fff17 	ldw	r4,-4(fp)
   20874:	00202ec0 	call	202ec <Read32_Data>
   20878:	e0bffd15 	stw	r2,-12(fp)
    if (bSuccess){
   2087c:	e0bffd17 	ldw	r2,-12(fp)
   20880:	10000426 	beq	r2,zero,20894 <ACK_judge_for_read+0x4c>
        if(this_data & 0x02)
   20884:	e0bffe17 	ldw	r2,-8(fp)
   20888:	1080008c 	andi	r2,r2,2
   2088c:	10000126 	beq	r2,zero,20894 <ACK_judge_for_read+0x4c>
            bSuccess = FALSE;
   20890:	e03ffd15 	stw	zero,-12(fp)
    }
   //wait the rx ACK signal 0-valid

    return bSuccess;
   20894:	e0bffd17 	ldw	r2,-12(fp)

}
   20898:	e037883a 	mov	sp,fp
   2089c:	dfc00117 	ldw	ra,4(sp)
   208a0:	df000017 	ldw	fp,0(sp)
   208a4:	dec00204 	addi	sp,sp,8
   208a8:	f800283a 	ret

000208ac <OC_I2C_Read>:

bool  OC_I2C_Read(alt_32 i2c_base,alt_u8 device_address,alt_u8 sub_address, alt_u8 *pData8, int nReadLength){
   208ac:	defff804 	addi	sp,sp,-32
   208b0:	dfc00715 	stw	ra,28(sp)
   208b4:	df000615 	stw	fp,24(sp)
   208b8:	df000604 	addi	fp,sp,24
   208bc:	e13ffc15 	stw	r4,-16(fp)
   208c0:	2807883a 	mov	r3,r5
   208c4:	3005883a 	mov	r2,r6
   208c8:	e1ffff15 	stw	r7,-4(fp)
   208cc:	e0fffd05 	stb	r3,-12(fp)
   208d0:	e0bffe05 	stb	r2,-8(fp)
    //BYTE data = 0x0;
    alt_32 Data32;
    int i;

   //set the tx reg audio chip dev address with write bit
   IOWR( i2c_base, 3,device_address);
   208d4:	e0bffc17 	ldw	r2,-16(fp)
   208d8:	10800304 	addi	r2,r2,12
   208dc:	1007883a 	mov	r3,r2
   208e0:	e0bffd03 	ldbu	r2,-12(fp)
   208e4:	18800035 	stwio	r2,0(r3)
   //set STA and WR bits(bit7 and bit4)
   IOWR( i2c_base, 4,0x90);
   208e8:	e0bffc17 	ldw	r2,-16(fp)
   208ec:	10800404 	addi	r2,r2,16
   208f0:	1007883a 	mov	r3,r2
   208f4:	00802404 	movi	r2,144
   208f8:	18800035 	stwio	r2,0(r3)
   //wait TIP bit go to 0 to end Tx
   if (!ACK_check( i2c_base)){
   208fc:	e13ffc17 	ldw	r4,-16(fp)
   20900:	00205e80 	call	205e8 <ACK_check>
   20904:	1000051e 	bne	r2,zero,2091c <OC_I2C_Read+0x70>
       printf("OC_I2C_Read error[2]\r\n");
   20908:	010000f4 	movhi	r4,3
   2090c:	21101204 	addi	r4,r4,16456
   20910:	0024fd80 	call	24fd8 <puts>
       return FALSE;
   20914:	0005883a 	mov	r2,zero
   20918:	00005206 	br	20a64 <OC_I2C_Read+0x1b8>
   }
   IOWR(i2c_base, 3,sub_address);
   2091c:	e0bffc17 	ldw	r2,-16(fp)
   20920:	10800304 	addi	r2,r2,12
   20924:	1007883a 	mov	r3,r2
   20928:	e0bffe03 	ldbu	r2,-8(fp)
   2092c:	18800035 	stwio	r2,0(r3)

   //set WR bits(bit4)
   IOWR( i2c_base, 4,0x10);
   20930:	e0bffc17 	ldw	r2,-16(fp)
   20934:	10800404 	addi	r2,r2,16
   20938:	1007883a 	mov	r3,r2
   2093c:	00800404 	movi	r2,16
   20940:	18800035 	stwio	r2,0(r3)
   //wait TIP bit go to 0 to end Tx
    if (!ACK_check( i2c_base)){
   20944:	e13ffc17 	ldw	r4,-16(fp)
   20948:	00205e80 	call	205e8 <ACK_check>
   2094c:	1000051e 	bne	r2,zero,20964 <OC_I2C_Read+0xb8>
        printf("OC_I2C_Read error[5]\r\n");
   20950:	010000f4 	movhi	r4,3
   20954:	21101804 	addi	r4,r4,16480
   20958:	0024fd80 	call	24fd8 <puts>
        return FALSE;
   2095c:	0005883a 	mov	r2,zero
   20960:	00004006 	br	20a64 <OC_I2C_Read+0x1b8>
  // printf("\n read receive ACK-reg address! \n");

   //read
    //set the tx reg audio chip dev address with read bit 1

    IOWR(i2c_base, 3,device_address|0x01);
   20964:	e0bffc17 	ldw	r2,-16(fp)
   20968:	10800304 	addi	r2,r2,12
   2096c:	1007883a 	mov	r3,r2
   20970:	e0bffd03 	ldbu	r2,-12(fp)
   20974:	10800054 	ori	r2,r2,1
   20978:	10803fcc 	andi	r2,r2,255
   2097c:	18800035 	stwio	r2,0(r3)

   //set STA and WR bits(bit7 and bit4)
    IOWR( i2c_base, 4,0x90);
   20980:	e0bffc17 	ldw	r2,-16(fp)
   20984:	10800404 	addi	r2,r2,16
   20988:	1007883a 	mov	r3,r2
   2098c:	00802404 	movi	r2,144
   20990:	18800035 	stwio	r2,0(r3)

   //wait TIP bit go to 0 to end Tx
    if (!ACK_check( i2c_base)){
   20994:	e13ffc17 	ldw	r4,-16(fp)
   20998:	00205e80 	call	205e8 <ACK_check>
   2099c:	1000051e 	bne	r2,zero,209b4 <OC_I2C_Read+0x108>
        printf("OC_I2C_Read error[8]\r\n");
   209a0:	010000f4 	movhi	r4,3
   209a4:	21101e04 	addi	r4,r4,16504
   209a8:	0024fd80 	call	24fd8 <puts>
        return FALSE;
   209ac:	0005883a 	mov	r2,zero
   209b0:	00002c06 	br	20a64 <OC_I2C_Read+0x1b8>
    }

    for(i=0;i<nReadLength;i++){
   209b4:	e03ffa15 	stw	zero,-24(fp)
   209b8:	00001f06 	br	20a38 <OC_I2C_Read+0x18c>
  // printf("\n read receive ACK-device address(read)! \n");
   //set the RD and ACK bit(bit5 and bit3)
    	IOWR( i2c_base, 4,((i+1) == nReadLength)?0x28:0x20);
   209bc:	e0bffc17 	ldw	r2,-16(fp)
   209c0:	10800404 	addi	r2,r2,16
   209c4:	1009883a 	mov	r4,r2
   209c8:	e0bffa17 	ldw	r2,-24(fp)
   209cc:	10c00044 	addi	r3,r2,1
   209d0:	e0800217 	ldw	r2,8(fp)
   209d4:	1880021e 	bne	r3,r2,209e0 <OC_I2C_Read+0x134>
   209d8:	00800a04 	movi	r2,40
   209dc:	00000106 	br	209e4 <OC_I2C_Read+0x138>
   209e0:	00800804 	movi	r2,32
   209e4:	20800035 	stwio	r2,0(r4)

        if (!ACK_judge_for_read( i2c_base)){
   209e8:	e13ffc17 	ldw	r4,-16(fp)
   209ec:	00208480 	call	20848 <ACK_judge_for_read>
   209f0:	1000051e 	bne	r2,zero,20a08 <OC_I2C_Read+0x15c>
            printf("OC_I2C_Read error[10]\r\n");
   209f4:	010000f4 	movhi	r4,3
   209f8:	21102404 	addi	r4,r4,16528
   209fc:	0024fd80 	call	24fd8 <puts>
            return FALSE;
   20a00:	0005883a 	mov	r2,zero
   20a04:	00001706 	br	20a64 <OC_I2C_Read+0x1b8>
        }
   // printf("\n read receive ACK-device address(read)! \n");

        Data32=IORD( i2c_base, 3);
   20a08:	e0bffc17 	ldw	r2,-16(fp)
   20a0c:	10800304 	addi	r2,r2,12
   20a10:	10800037 	ldwio	r2,0(r2)
   20a14:	e0bffb15 	stw	r2,-20(fp)
        *(pData8+i) =  Data32 & 0xff;
   20a18:	e0bffa17 	ldw	r2,-24(fp)
   20a1c:	e0ffff17 	ldw	r3,-4(fp)
   20a20:	1885883a 	add	r2,r3,r2
   20a24:	e0fffb17 	ldw	r3,-20(fp)
   20a28:	10c00005 	stb	r3,0(r2)
    if (!ACK_check( i2c_base)){
        printf("OC_I2C_Read error[8]\r\n");
        return FALSE;
    }

    for(i=0;i<nReadLength;i++){
   20a2c:	e0bffa17 	ldw	r2,-24(fp)
   20a30:	10800044 	addi	r2,r2,1
   20a34:	e0bffa15 	stw	r2,-24(fp)
   20a38:	e0fffa17 	ldw	r3,-24(fp)
   20a3c:	e0800217 	ldw	r2,8(fp)
   20a40:	18bfde16 	blt	r3,r2,209bc <__alt_data_end+0xfffe15bc>

        Data32=IORD( i2c_base, 3);
        *(pData8+i) =  Data32 & 0xff;
    }

    IOWR( i2c_base, 4,0x40);
   20a44:	e0bffc17 	ldw	r2,-16(fp)
   20a48:	10800404 	addi	r2,r2,16
   20a4c:	1007883a 	mov	r3,r2
   20a50:	00801004 	movi	r2,64
   20a54:	18800035 	stwio	r2,0(r3)

  // Sleep(10);
   //OS_msleep(1);
    usleep(SLEEP_TIME);
   20a58:	01003e84 	movi	r4,250
   20a5c:	0031a340 	call	31a34 <usleep>
 //  printf(" Read  [%02X] = %02Xh\r\n", sub_address, data);


   return TRUE;
   20a60:	00800044 	movi	r2,1

}
   20a64:	e037883a 	mov	sp,fp
   20a68:	dfc00117 	ldw	ra,4(sp)
   20a6c:	df000017 	ldw	fp,0(sp)
   20a70:	dec00204 	addi	sp,sp,8
   20a74:	f800283a 	ret

00020a78 <OC_I2C_Read_Continue>:


bool  OC_I2C_Read_Continue(alt_32 i2c_base,alt_u8 device_address, alt_u8 *pData8, int nReadLength){
   20a78:	defff804 	addi	sp,sp,-32
   20a7c:	dfc00715 	stw	ra,28(sp)
   20a80:	df000615 	stw	fp,24(sp)
   20a84:	df000604 	addi	fp,sp,24
   20a88:	e13ffc15 	stw	r4,-16(fp)
   20a8c:	2805883a 	mov	r2,r5
   20a90:	e1bffe15 	stw	r6,-8(fp)
   20a94:	e1ffff15 	stw	r7,-4(fp)
   20a98:	e0bffd05 	stb	r2,-12(fp)
	int i;
	alt_u32 Data32;

    IOWR(i2c_base, 3,device_address|0x01);
   20a9c:	e0bffc17 	ldw	r2,-16(fp)
   20aa0:	10800304 	addi	r2,r2,12
   20aa4:	1007883a 	mov	r3,r2
   20aa8:	e0bffd03 	ldbu	r2,-12(fp)
   20aac:	10800054 	ori	r2,r2,1
   20ab0:	10803fcc 	andi	r2,r2,255
   20ab4:	18800035 	stwio	r2,0(r3)

   //set STA and WR bits(bit7 and bit4)
    IOWR( i2c_base, 4,0x90);
   20ab8:	e0bffc17 	ldw	r2,-16(fp)
   20abc:	10800404 	addi	r2,r2,16
   20ac0:	1007883a 	mov	r3,r2
   20ac4:	00802404 	movi	r2,144
   20ac8:	18800035 	stwio	r2,0(r3)
//usleep(5*1000);
   //wait TIP bit go to 0 to end Tx
    if (!ACK_check( i2c_base)){
   20acc:	e13ffc17 	ldw	r4,-16(fp)
   20ad0:	00205e80 	call	205e8 <ACK_check>
   20ad4:	1000051e 	bne	r2,zero,20aec <OC_I2C_Read_Continue+0x74>
        printf("OC_I2C_Read error[8]\r\n");
   20ad8:	010000f4 	movhi	r4,3
   20adc:	21101e04 	addi	r4,r4,16504
   20ae0:	0024fd80 	call	24fd8 <puts>
        return FALSE;
   20ae4:	0005883a 	mov	r2,zero
   20ae8:	00002c06 	br	20b9c <OC_I2C_Read_Continue+0x124>
    }

    for(i=0;i<nReadLength;i++){
   20aec:	e03ffa15 	stw	zero,-24(fp)
   20af0:	00001f06 	br	20b70 <OC_I2C_Read_Continue+0xf8>
  // printf("\n read receive ACK-device address(read)! \n");
   //set the RD and ACK bit(bit5 and bit3)
    	IOWR( i2c_base, 4,((i+1) == nReadLength)?0x28:0x20);
   20af4:	e0bffc17 	ldw	r2,-16(fp)
   20af8:	10800404 	addi	r2,r2,16
   20afc:	1009883a 	mov	r4,r2
   20b00:	e0bffa17 	ldw	r2,-24(fp)
   20b04:	10c00044 	addi	r3,r2,1
   20b08:	e0bfff17 	ldw	r2,-4(fp)
   20b0c:	1880021e 	bne	r3,r2,20b18 <OC_I2C_Read_Continue+0xa0>
   20b10:	00800a04 	movi	r2,40
   20b14:	00000106 	br	20b1c <OC_I2C_Read_Continue+0xa4>
   20b18:	00800804 	movi	r2,32
   20b1c:	20800035 	stwio	r2,0(r4)

        if (!ACK_judge_for_read( i2c_base)){
   20b20:	e13ffc17 	ldw	r4,-16(fp)
   20b24:	00208480 	call	20848 <ACK_judge_for_read>
   20b28:	1000051e 	bne	r2,zero,20b40 <OC_I2C_Read_Continue+0xc8>
            printf("OC_I2C_Read error[10]\r\n");
   20b2c:	010000f4 	movhi	r4,3
   20b30:	21102404 	addi	r4,r4,16528
   20b34:	0024fd80 	call	24fd8 <puts>
            return FALSE;
   20b38:	0005883a 	mov	r2,zero
   20b3c:	00001706 	br	20b9c <OC_I2C_Read_Continue+0x124>
        }
   // printf("\n read receive ACK-device address(read)! \n");

        Data32=IORD( i2c_base, 3);
   20b40:	e0bffc17 	ldw	r2,-16(fp)
   20b44:	10800304 	addi	r2,r2,12
   20b48:	10800037 	ldwio	r2,0(r2)
   20b4c:	e0bffb15 	stw	r2,-20(fp)
        *(pData8+i) =  Data32 & 0xff;
   20b50:	e0bffa17 	ldw	r2,-24(fp)
   20b54:	e0fffe17 	ldw	r3,-8(fp)
   20b58:	1885883a 	add	r2,r3,r2
   20b5c:	e0fffb17 	ldw	r3,-20(fp)
   20b60:	10c00005 	stb	r3,0(r2)
    if (!ACK_check( i2c_base)){
        printf("OC_I2C_Read error[8]\r\n");
        return FALSE;
    }

    for(i=0;i<nReadLength;i++){
   20b64:	e0bffa17 	ldw	r2,-24(fp)
   20b68:	10800044 	addi	r2,r2,1
   20b6c:	e0bffa15 	stw	r2,-24(fp)
   20b70:	e0fffa17 	ldw	r3,-24(fp)
   20b74:	e0bfff17 	ldw	r2,-4(fp)
   20b78:	18bfde16 	blt	r3,r2,20af4 <__alt_data_end+0xfffe16f4>

        Data32=IORD( i2c_base, 3);
        *(pData8+i) =  Data32 & 0xff;
    }

    IOWR( i2c_base, 4,0x40);
   20b7c:	e0bffc17 	ldw	r2,-16(fp)
   20b80:	10800404 	addi	r2,r2,16
   20b84:	1007883a 	mov	r3,r2
   20b88:	00801004 	movi	r2,64
   20b8c:	18800035 	stwio	r2,0(r3)

  // Sleep(10);
   //OS_msleep(1);
    usleep(SLEEP_TIME);
   20b90:	01003e84 	movi	r4,250
   20b94:	0031a340 	call	31a34 <usleep>
 //  printf(" Read  [%02X] = %02Xh\r\n", sub_address, data);


   return TRUE;
   20b98:	00800044 	movi	r2,1

}
   20b9c:	e037883a 	mov	sp,fp
   20ba0:	dfc00117 	ldw	ra,4(sp)
   20ba4:	df000017 	ldw	fp,0(sp)
   20ba8:	dec00204 	addi	sp,sp,8
   20bac:	f800283a 	ret

00020bb0 <OC_I2CL_Write>:


//  size > 2Kb
bool  OC_I2CL_Write(alt_32 i2c_base,alt_u8 device_address,alt_u16 sub_address,alt_u8 *pData, int nWriteLength)
    {
   20bb0:	defff804 	addi	sp,sp,-32
   20bb4:	dfc00715 	stw	ra,28(sp)
   20bb8:	df000615 	stw	fp,24(sp)
   20bbc:	df000604 	addi	fp,sp,24
   20bc0:	e13ffc15 	stw	r4,-16(fp)
   20bc4:	2807883a 	mov	r3,r5
   20bc8:	3005883a 	mov	r2,r6
   20bcc:	e1ffff15 	stw	r7,-4(fp)
   20bd0:	e0fffd05 	stb	r3,-12(fp)
   20bd4:	e0bffe0d 	sth	r2,-8(fp)
    //DWORD reg_data = 0x0;
	alt_u8 AddrHigh, AddrLow;
    //int count= 0;

    AddrHigh = (sub_address >> 8) & 0xFF;
   20bd8:	e0bffe0b 	ldhu	r2,-8(fp)
   20bdc:	1004d23a 	srli	r2,r2,8
   20be0:	e0bffb05 	stb	r2,-20(fp)
    AddrLow  = sub_address & 0xFF;
   20be4:	e0bffe0b 	ldhu	r2,-8(fp)
   20be8:	e0bffb45 	stb	r2,-19(fp)

    int i;

    //set the tx reg audio chip dev address with write bit
   if (!Write32_Data( i2c_base, 3,device_address))
   20bec:	e0bffd03 	ldbu	r2,-12(fp)
   20bf0:	100d883a 	mov	r6,r2
   20bf4:	014000c4 	movi	r5,3
   20bf8:	e13ffc17 	ldw	r4,-16(fp)
   20bfc:	00202940 	call	20294 <Write32_Data>
   20c00:	1000021e 	bne	r2,zero,20c0c <OC_I2CL_Write+0x5c>
       return FALSE;
   20c04:	0005883a 	mov	r2,zero
   20c08:	00006806 	br	20dac <OC_I2CL_Write+0x1fc>
   //set STA and WR bits(bit7 and bit4)
   if (!Write32_Data( i2c_base, 4,0x90))//0x90
   20c0c:	01802404 	movi	r6,144
   20c10:	01400104 	movi	r5,4
   20c14:	e13ffc17 	ldw	r4,-16(fp)
   20c18:	00202940 	call	20294 <Write32_Data>
   20c1c:	1000021e 	bne	r2,zero,20c28 <OC_I2CL_Write+0x78>
       return FALSE;
   20c20:	0005883a 	mov	r2,zero
   20c24:	00006106 	br	20dac <OC_I2CL_Write+0x1fc>

   //wait TIP bit go to 0 to end Tx
    if(!ACK_check( i2c_base)){
   20c28:	e13ffc17 	ldw	r4,-16(fp)
   20c2c:	00205e80 	call	205e8 <ACK_check>
   20c30:	1000051e 	bne	r2,zero,20c48 <OC_I2CL_Write+0x98>
        printf("OC_I2CL_Write error[0]\r\n");
   20c34:	010000f4 	movhi	r4,3
   20c38:	21102a04 	addi	r4,r4,16552
   20c3c:	0024fd80 	call	24fd8 <puts>
        return FALSE;
   20c40:	0005883a 	mov	r2,zero
   20c44:	00005906 	br	20dac <OC_I2CL_Write+0x1fc>
  // printf("\n receive ACK-device address! \n");

   //set the txr reg data with reg address + 1 data MSB
 //  reg_data  = (sub_address << 1) & 0xFE;
   //reg_data |= ((data >> 8) & 0x01);
   if (!Write32_Data( i2c_base, 3,AddrHigh))//reg_data&0xff);
   20c48:	e0bffb03 	ldbu	r2,-20(fp)
   20c4c:	100d883a 	mov	r6,r2
   20c50:	014000c4 	movi	r5,3
   20c54:	e13ffc17 	ldw	r4,-16(fp)
   20c58:	00202940 	call	20294 <Write32_Data>
   20c5c:	1000021e 	bne	r2,zero,20c68 <OC_I2CL_Write+0xb8>
       return FALSE;
   20c60:	0005883a 	mov	r2,zero
   20c64:	00005106 	br	20dac <OC_I2CL_Write+0x1fc>

   //set WR bits(bit4)
    if (!Write32_Data( i2c_base, 4,0x10))
   20c68:	01800404 	movi	r6,16
   20c6c:	01400104 	movi	r5,4
   20c70:	e13ffc17 	ldw	r4,-16(fp)
   20c74:	00202940 	call	20294 <Write32_Data>
   20c78:	1000021e 	bne	r2,zero,20c84 <OC_I2CL_Write+0xd4>
        return FALSE;
   20c7c:	0005883a 	mov	r2,zero
   20c80:	00004a06 	br	20dac <OC_I2CL_Write+0x1fc>

   //wait TIP bit go to 0 to end Tx
    if(!ACK_check( i2c_base)){
   20c84:	e13ffc17 	ldw	r4,-16(fp)
   20c88:	00205e80 	call	205e8 <ACK_check>
   20c8c:	1000051e 	bne	r2,zero,20ca4 <OC_I2CL_Write+0xf4>
        printf("OC_I2CL_Write error[1]\r\n");
   20c90:	010000f4 	movhi	r4,3
   20c94:	21103004 	addi	r4,r4,16576
   20c98:	0024fd80 	call	24fd8 <puts>
        return FALSE;
   20c9c:	0005883a 	mov	r2,zero
   20ca0:	00004206 	br	20dac <OC_I2CL_Write+0x1fc>
    }
  // printf("\n receive ACK-reg high address! \n");

   //set the txr reg data with reg address + 1 data MSB
   if (!Write32_Data( i2c_base, 3,AddrLow))//reg_data&0xff);
   20ca4:	e0bffb43 	ldbu	r2,-19(fp)
   20ca8:	100d883a 	mov	r6,r2
   20cac:	014000c4 	movi	r5,3
   20cb0:	e13ffc17 	ldw	r4,-16(fp)
   20cb4:	00202940 	call	20294 <Write32_Data>
   20cb8:	1000021e 	bne	r2,zero,20cc4 <OC_I2CL_Write+0x114>
       return FALSE;
   20cbc:	0005883a 	mov	r2,zero
   20cc0:	00003a06 	br	20dac <OC_I2CL_Write+0x1fc>

   //set WR bits(bit4)
    Write32_Data( i2c_base, 4,0x10);
   20cc4:	01800404 	movi	r6,16
   20cc8:	01400104 	movi	r5,4
   20ccc:	e13ffc17 	ldw	r4,-16(fp)
   20cd0:	00202940 	call	20294 <Write32_Data>

   //wait TIP bit go to 0 to end Tx
    if(!ACK_check( i2c_base)){
   20cd4:	e13ffc17 	ldw	r4,-16(fp)
   20cd8:	00205e80 	call	205e8 <ACK_check>
   20cdc:	1000051e 	bne	r2,zero,20cf4 <OC_I2CL_Write+0x144>
        printf("OC_I2CL_Write error[2]\r\n");
   20ce0:	010000f4 	movhi	r4,3
   20ce4:	21103604 	addi	r4,r4,16600
   20ce8:	0024fd80 	call	24fd8 <puts>
        return FALSE;
   20cec:	0005883a 	mov	r2,zero
   20cf0:	00002e06 	br	20dac <OC_I2CL_Write+0x1fc>
    }
  //  printf("\n receive ACK-reg low address! \n");

#if 1
    for( i=nWriteLength-1;i>=0;i--){
   20cf4:	e0800217 	ldw	r2,8(fp)
   20cf8:	10bfffc4 	addi	r2,r2,-1
   20cfc:	e0bffa15 	stw	r2,-24(fp)
   20d00:	00001e06 	br	20d7c <OC_I2CL_Write+0x1cc>
        //set the txr reg data with the other data 8 bit LSB
        if (!Write32_Data( i2c_base, 3,*(pData+i)))
   20d04:	e0bffa17 	ldw	r2,-24(fp)
   20d08:	e0ffff17 	ldw	r3,-4(fp)
   20d0c:	1885883a 	add	r2,r3,r2
   20d10:	10800003 	ldbu	r2,0(r2)
   20d14:	10803fcc 	andi	r2,r2,255
   20d18:	100d883a 	mov	r6,r2
   20d1c:	014000c4 	movi	r5,3
   20d20:	e13ffc17 	ldw	r4,-16(fp)
   20d24:	00202940 	call	20294 <Write32_Data>
   20d28:	1000021e 	bne	r2,zero,20d34 <OC_I2CL_Write+0x184>
            return FALSE;
   20d2c:	0005883a 	mov	r2,zero
   20d30:	00001e06 	br	20dac <OC_I2CL_Write+0x1fc>

       //set STO and WR bits(bit7 and bit4)
        if (!Write32_Data( i2c_base, 4,0x10))
   20d34:	01800404 	movi	r6,16
   20d38:	01400104 	movi	r5,4
   20d3c:	e13ffc17 	ldw	r4,-16(fp)
   20d40:	00202940 	call	20294 <Write32_Data>
   20d44:	1000021e 	bne	r2,zero,20d50 <OC_I2CL_Write+0x1a0>
            return FALSE;
   20d48:	0005883a 	mov	r2,zero
   20d4c:	00001706 	br	20dac <OC_I2CL_Write+0x1fc>

        //wait TIP bit go to 0 to end Tx
         if(!ACK_check( i2c_base)){
   20d50:	e13ffc17 	ldw	r4,-16(fp)
   20d54:	00205e80 	call	205e8 <ACK_check>
   20d58:	1000051e 	bne	r2,zero,20d70 <OC_I2CL_Write+0x1c0>
             printf("OC_I2CL_Write error[3]\r\n");
   20d5c:	010000f4 	movhi	r4,3
   20d60:	21103c04 	addi	r4,r4,16624
   20d64:	0024fd80 	call	24fd8 <puts>
             return FALSE;
   20d68:	0005883a 	mov	r2,zero
   20d6c:	00000f06 	br	20dac <OC_I2CL_Write+0x1fc>
        return FALSE;
    }
  //  printf("\n receive ACK-reg low address! \n");

#if 1
    for( i=nWriteLength-1;i>=0;i--){
   20d70:	e0bffa17 	ldw	r2,-24(fp)
   20d74:	10bfffc4 	addi	r2,r2,-1
   20d78:	e0bffa15 	stw	r2,-24(fp)
   20d7c:	e0bffa17 	ldw	r2,-24(fp)
   20d80:	103fe00e 	bge	r2,zero,20d04 <__alt_data_end+0xfffe1904>
   //wait TIP bit go to 0 to end Tx
    if(!ACK_check( i2c_base))
        return FALSE;

#endif
    if (!Write32_Data( i2c_base, 4,0x40))
   20d84:	01801004 	movi	r6,64
   20d88:	01400104 	movi	r5,4
   20d8c:	e13ffc17 	ldw	r4,-16(fp)
   20d90:	00202940 	call	20294 <Write32_Data>
   20d94:	1000021e 	bne	r2,zero,20da0 <OC_I2CL_Write+0x1f0>
         return FALSE;
   20d98:	0005883a 	mov	r2,zero
   20d9c:	00000306 	br	20dac <OC_I2CL_Write+0x1fc>

     //OS_msleep(1);
      usleep(SLEEP_TIME);
   20da0:	01003e84 	movi	r4,250
   20da4:	0031a340 	call	31a34 <usleep>
  //  printf("\n receive ACK-data! \n");

     return TRUE;
   20da8:	00800044 	movi	r2,1
}
   20dac:	e037883a 	mov	sp,fp
   20db0:	dfc00117 	ldw	ra,4(sp)
   20db4:	df000017 	ldw	fp,0(sp)
   20db8:	dec00204 	addi	sp,sp,8
   20dbc:	f800283a 	ret

00020dc0 <OC_I2CL_Read>:

   return TRUE;

} */

bool  OC_I2CL_Read(alt_32 i2c_base,alt_u8 device_address, alt_u16 sub_address, alt_u8 *pData8, int nReadLength){
   20dc0:	defff704 	addi	sp,sp,-36
   20dc4:	dfc00815 	stw	ra,32(sp)
   20dc8:	df000715 	stw	fp,28(sp)
   20dcc:	df000704 	addi	fp,sp,28
   20dd0:	e13ffc15 	stw	r4,-16(fp)
   20dd4:	2807883a 	mov	r3,r5
   20dd8:	3005883a 	mov	r2,r6
   20ddc:	e1ffff15 	stw	r7,-4(fp)
   20de0:	e0fffd05 	stb	r3,-12(fp)
   20de4:	e0bffe0d 	sth	r2,-8(fp)
    int i;

    alt_u8 AddrHigh, AddrLow;
    alt_u8 DataHigh, DataLow;

    AddrHigh = (sub_address >> 8) & 0xFF;
   20de8:	e0bffe0b 	ldhu	r2,-8(fp)
   20dec:	1004d23a 	srli	r2,r2,8
   20df0:	e0bffa05 	stb	r2,-24(fp)
    AddrLow  = sub_address & 0xFF;
   20df4:	e0bffe0b 	ldhu	r2,-8(fp)
   20df8:	e0bffa45 	stb	r2,-23(fp)


   //set the tx reg audio chip dev address with write bit
   if (!Write32_Data( i2c_base, 3,device_address))
   20dfc:	e0bffd03 	ldbu	r2,-12(fp)
   20e00:	100d883a 	mov	r6,r2
   20e04:	014000c4 	movi	r5,3
   20e08:	e13ffc17 	ldw	r4,-16(fp)
   20e0c:	00202940 	call	20294 <Write32_Data>
   20e10:	1000021e 	bne	r2,zero,20e1c <OC_I2CL_Read+0x5c>
       return FALSE;
   20e14:	0005883a 	mov	r2,zero
   20e18:	00008406 	br	2102c <OC_I2CL_Read+0x26c>

   //set STA and WR bits(bit7 and bit4)
   if (!Write32_Data( i2c_base, 4,0x90))
   20e1c:	01802404 	movi	r6,144
   20e20:	01400104 	movi	r5,4
   20e24:	e13ffc17 	ldw	r4,-16(fp)
   20e28:	00202940 	call	20294 <Write32_Data>
   20e2c:	1000021e 	bne	r2,zero,20e38 <OC_I2CL_Read+0x78>
       return FALSE;
   20e30:	0005883a 	mov	r2,zero
   20e34:	00007d06 	br	2102c <OC_I2CL_Read+0x26c>

   //wait TIP bit go to 0 to end Tx
    if(!ACK_check( i2c_base)){
   20e38:	e13ffc17 	ldw	r4,-16(fp)
   20e3c:	00205e80 	call	205e8 <ACK_check>
   20e40:	1000051e 	bne	r2,zero,20e58 <OC_I2CL_Read+0x98>
        printf("OC_I2CL_Read error[0]\r\n");
   20e44:	010000f4 	movhi	r4,3
   20e48:	21104204 	addi	r4,r4,16648
   20e4c:	0024fd80 	call	24fd8 <puts>
        return FALSE;
   20e50:	0005883a 	mov	r2,zero
   20e54:	00007506 	br	2102c <OC_I2CL_Read+0x26c>
 //  printf("\n receive ACK-device address! \n");


   //set the txr reg data with reg address + 0

   if (!Write32_Data( i2c_base, 3,AddrHigh))//reg_data&0xff);
   20e58:	e0bffa03 	ldbu	r2,-24(fp)
   20e5c:	100d883a 	mov	r6,r2
   20e60:	014000c4 	movi	r5,3
   20e64:	e13ffc17 	ldw	r4,-16(fp)
   20e68:	00202940 	call	20294 <Write32_Data>
   20e6c:	1000021e 	bne	r2,zero,20e78 <OC_I2CL_Read+0xb8>
       return FALSE;
   20e70:	0005883a 	mov	r2,zero
   20e74:	00006d06 	br	2102c <OC_I2CL_Read+0x26c>

   //set WR bits(bit4)
    if (!Write32_Data( i2c_base, 4,0x10))
   20e78:	01800404 	movi	r6,16
   20e7c:	01400104 	movi	r5,4
   20e80:	e13ffc17 	ldw	r4,-16(fp)
   20e84:	00202940 	call	20294 <Write32_Data>
   20e88:	1000021e 	bne	r2,zero,20e94 <OC_I2CL_Read+0xd4>
        return FALSE;
   20e8c:	0005883a 	mov	r2,zero
   20e90:	00006606 	br	2102c <OC_I2CL_Read+0x26c>

   //wait TIP bit go to 0 to end Tx
    if(!ACK_check( i2c_base)){
   20e94:	e13ffc17 	ldw	r4,-16(fp)
   20e98:	00205e80 	call	205e8 <ACK_check>
   20e9c:	1000051e 	bne	r2,zero,20eb4 <OC_I2CL_Read+0xf4>
        printf("OC_I2CL_Read error[1]\r\n");
   20ea0:	010000f4 	movhi	r4,3
   20ea4:	21104804 	addi	r4,r4,16672
   20ea8:	0024fd80 	call	24fd8 <puts>
        return FALSE;
   20eac:	0005883a 	mov	r2,zero
   20eb0:	00005e06 	br	2102c <OC_I2CL_Read+0x26c>
    }
//   printf("\n read receive ACK-reg High address! \n");

     //set the txr reg data with reg address + 0
   if (!Write32_Data( i2c_base, 3,AddrLow)) //;//reg_data&0xff);
   20eb4:	e0bffa43 	ldbu	r2,-23(fp)
   20eb8:	100d883a 	mov	r6,r2
   20ebc:	014000c4 	movi	r5,3
   20ec0:	e13ffc17 	ldw	r4,-16(fp)
   20ec4:	00202940 	call	20294 <Write32_Data>
   20ec8:	1000021e 	bne	r2,zero,20ed4 <OC_I2CL_Read+0x114>
       return FALSE;
   20ecc:	0005883a 	mov	r2,zero
   20ed0:	00005606 	br	2102c <OC_I2CL_Read+0x26c>
   //set WR bits(bit4)
    if (!Write32_Data( i2c_base, 4,0x10))
   20ed4:	01800404 	movi	r6,16
   20ed8:	01400104 	movi	r5,4
   20edc:	e13ffc17 	ldw	r4,-16(fp)
   20ee0:	00202940 	call	20294 <Write32_Data>
   20ee4:	1000021e 	bne	r2,zero,20ef0 <OC_I2CL_Read+0x130>
        return FALSE;
   20ee8:	0005883a 	mov	r2,zero
   20eec:	00004f06 	br	2102c <OC_I2CL_Read+0x26c>

   //wait TIP bit go to 0 to end Tx
    if(!ACK_check( i2c_base)){
   20ef0:	e13ffc17 	ldw	r4,-16(fp)
   20ef4:	00205e80 	call	205e8 <ACK_check>
   20ef8:	1000051e 	bne	r2,zero,20f10 <OC_I2CL_Read+0x150>
        printf("OC_I2CL_Read error[2]\r\n");
   20efc:	010000f4 	movhi	r4,3
   20f00:	21104e04 	addi	r4,r4,16696
   20f04:	0024fd80 	call	24fd8 <puts>
        return FALSE;
   20f08:	0005883a 	mov	r2,zero
   20f0c:	00004706 	br	2102c <OC_I2CL_Read+0x26c>

 //  printf("\n read receive ACK-reg Low address! \n");

   //read
    //set the tx reg audio chip dev address with read bit 1
     if (!Write32_Data( i2c_base, 3,device_address|0x01))
   20f10:	e0bffd03 	ldbu	r2,-12(fp)
   20f14:	10800054 	ori	r2,r2,1
   20f18:	10803fcc 	andi	r2,r2,255
   20f1c:	100d883a 	mov	r6,r2
   20f20:	014000c4 	movi	r5,3
   20f24:	e13ffc17 	ldw	r4,-16(fp)
   20f28:	00202940 	call	20294 <Write32_Data>
   20f2c:	1000021e 	bne	r2,zero,20f38 <OC_I2CL_Read+0x178>
         return FALSE;
   20f30:	0005883a 	mov	r2,zero
   20f34:	00003d06 	br	2102c <OC_I2CL_Read+0x26c>

   //set STA and WR bits(bit7 and bit4)
     if (!Write32_Data( i2c_base, 4,0x90))
   20f38:	01802404 	movi	r6,144
   20f3c:	01400104 	movi	r5,4
   20f40:	e13ffc17 	ldw	r4,-16(fp)
   20f44:	00202940 	call	20294 <Write32_Data>
   20f48:	1000021e 	bne	r2,zero,20f54 <OC_I2CL_Read+0x194>
         return FALSE;
   20f4c:	0005883a 	mov	r2,zero
   20f50:	00003606 	br	2102c <OC_I2CL_Read+0x26c>

   //wait TIP bit go to 0 to end Tx
    if(!ACK_check( i2c_base)){
   20f54:	e13ffc17 	ldw	r4,-16(fp)
   20f58:	00205e80 	call	205e8 <ACK_check>
   20f5c:	1000051e 	bne	r2,zero,20f74 <OC_I2CL_Read+0x1b4>
        printf("OC_I2CL_Read error[3]\r\n");
   20f60:	010000f4 	movhi	r4,3
   20f64:	21105404 	addi	r4,r4,16720
   20f68:	0024fd80 	call	24fd8 <puts>
        return FALSE;
   20f6c:	0005883a 	mov	r2,zero
   20f70:	00002e06 	br	2102c <OC_I2CL_Read+0x26c>
//   printf("\n read receive ACK-device address(read)! \n");

       //read the rxr data

#if 1
    for(i=0;i<nReadLength;i++){
   20f74:	e03ff915 	stw	zero,-28(fp)
   20f78:	00001f06 	br	20ff8 <OC_I2CL_Read+0x238>
  // printf("\n read receive ACK-device address(read)! \n");
   //set the RD and ACK bit(bit5 and bit3)
    	IOWR( i2c_base, 4,((i+1) == nReadLength)?0x28:0x20);
   20f7c:	e0bffc17 	ldw	r2,-16(fp)
   20f80:	10800404 	addi	r2,r2,16
   20f84:	1009883a 	mov	r4,r2
   20f88:	e0bff917 	ldw	r2,-28(fp)
   20f8c:	10c00044 	addi	r3,r2,1
   20f90:	e0800217 	ldw	r2,8(fp)
   20f94:	1880021e 	bne	r3,r2,20fa0 <OC_I2CL_Read+0x1e0>
   20f98:	00800a04 	movi	r2,40
   20f9c:	00000106 	br	20fa4 <OC_I2CL_Read+0x1e4>
   20fa0:	00800804 	movi	r2,32
   20fa4:	20800035 	stwio	r2,0(r4)

        if (!ACK_judge_for_read( i2c_base)){
   20fa8:	e13ffc17 	ldw	r4,-16(fp)
   20fac:	00208480 	call	20848 <ACK_judge_for_read>
   20fb0:	1000051e 	bne	r2,zero,20fc8 <OC_I2CL_Read+0x208>
            printf("OC_I2CL_Read error[4]\r\n");
   20fb4:	010000f4 	movhi	r4,3
   20fb8:	21105a04 	addi	r4,r4,16744
   20fbc:	0024fd80 	call	24fd8 <puts>
            return FALSE;
   20fc0:	0005883a 	mov	r2,zero
   20fc4:	00001906 	br	2102c <OC_I2CL_Read+0x26c>
        }
   // printf("\n read receive ACK-device address(read)! \n");

        Data32=IORD( i2c_base, 3);
   20fc8:	e0bffc17 	ldw	r2,-16(fp)
   20fcc:	10800304 	addi	r2,r2,12
   20fd0:	10800037 	ldwio	r2,0(r2)
   20fd4:	e0bffb15 	stw	r2,-20(fp)
        *(pData8+i) =  Data32 & 0xff;
   20fd8:	e0bff917 	ldw	r2,-28(fp)
   20fdc:	e0ffff17 	ldw	r3,-4(fp)
   20fe0:	1885883a 	add	r2,r3,r2
   20fe4:	e0fffb17 	ldw	r3,-20(fp)
   20fe8:	10c00005 	stb	r3,0(r2)
//   printf("\n read receive ACK-device address(read)! \n");

       //read the rxr data

#if 1
    for(i=0;i<nReadLength;i++){
   20fec:	e0bff917 	ldw	r2,-28(fp)
   20ff0:	10800044 	addi	r2,r2,1
   20ff4:	e0bff915 	stw	r2,-28(fp)
   20ff8:	e0fff917 	ldw	r3,-28(fp)
   20ffc:	e0800217 	ldw	r2,8(fp)
   21000:	18bfde16 	blt	r3,r2,20f7c <__alt_data_end+0xfffe1b7c>
    DataLow =  Data32 & 0xff;

    pData16 = (DataHigh << 8) | DataLow;
#endif

   if (!Write32_Data( i2c_base, 4,0x40))
   21004:	01801004 	movi	r6,64
   21008:	01400104 	movi	r5,4
   2100c:	e13ffc17 	ldw	r4,-16(fp)
   21010:	00202940 	call	20294 <Write32_Data>
   21014:	1000021e 	bne	r2,zero,21020 <OC_I2CL_Read+0x260>
       return FALSE;
   21018:	0005883a 	mov	r2,zero
   2101c:	00000306 	br	2102c <OC_I2CL_Read+0x26c>

   //OS_msleep(1);
    usleep(SLEEP_TIME);
   21020:	01003e84 	movi	r4,250
   21024:	0031a340 	call	31a34 <usleep>

   return TRUE;
   21028:	00800044 	movi	r2,1

}
   2102c:	e037883a 	mov	sp,fp
   21030:	dfc00117 	ldw	ra,4(sp)
   21034:	df000017 	ldw	fp,0(sp)
   21038:	dec00204 	addi	sp,sp,8
   2103c:	f800283a 	ret

00021040 <Focus_Init>:
// please observe focus performance when change the scal ,scal_f. or when change camera frame rate
alt_u8  focus_scal   =   4;  // scan 0 -> 1023 , step: SCAL , to find STEP_UP
alt_u8  focus_scal_f =   1;  //  scan STEP_UP + - SCAL/2 , step: SCAL_F
alt_u8  focus_th     =   20;

void Focus_Init(void){
   21040:	defffe04 	addi	sp,sp,-8
   21044:	dfc00115 	stw	ra,4(sp)
   21048:	df000015 	stw	fp,0(sp)
   2104c:	d839883a 	mov	fp,sp
  // please look at TERASIC_AUTO_FOCUS IP to see register's detail.
  IOWR(TERASIC_AUTO_FOCUS_0_BASE,REG_CTRL, 0);// focus mode : 1: window-screen, 0: full-screen
   21050:	0007883a 	mov	r3,zero
   21054:	00800134 	movhi	r2,4
   21058:	10841104 	addi	r2,r2,4164
   2105c:	10c00035 	stwio	r3,0(r2)
  IOWR(TERASIC_AUTO_FOCUS_0_BASE,REG_FOCUS_W, focus_width);// focus_width
   21060:	d0a0010b 	ldhu	r2,-32764(gp)
   21064:	10ffffcc 	andi	r3,r2,65535
   21068:	00800134 	movhi	r2,4
   2106c:	10841204 	addi	r2,r2,4168
   21070:	10c00035 	stwio	r3,0(r2)
  IOWR(TERASIC_AUTO_FOCUS_0_BASE,REG_FOCUS_H, focus_height);// focus_height
   21074:	d0a0018b 	ldhu	r2,-32762(gp)
   21078:	10ffffcc 	andi	r3,r2,65535
   2107c:	00800134 	movhi	r2,4
   21080:	10841304 	addi	r2,r2,4172
   21084:	10c00035 	stwio	r3,0(r2)
  IOWR(TERASIC_AUTO_FOCUS_0_BASE,REG_FOCUS_X_START, video_w/2-focus_width/2);//x_start
   21088:	d0a0000b 	ldhu	r2,-32768(gp)
   2108c:	10bfffcc 	andi	r2,r2,65535
   21090:	1004d07a 	srli	r2,r2,1
   21094:	10ffffcc 	andi	r3,r2,65535
   21098:	d0a0010b 	ldhu	r2,-32764(gp)
   2109c:	10bfffcc 	andi	r2,r2,65535
   210a0:	1004d07a 	srli	r2,r2,1
   210a4:	10bfffcc 	andi	r2,r2,65535
   210a8:	1887c83a 	sub	r3,r3,r2
   210ac:	00800134 	movhi	r2,4
   210b0:	10841404 	addi	r2,r2,4176
   210b4:	10c00035 	stwio	r3,0(r2)
  IOWR(TERASIC_AUTO_FOCUS_0_BASE,REG_FOCUS_Y_START, video_h/2-focus_height/2);// y_start
   210b8:	d0a0008b 	ldhu	r2,-32766(gp)
   210bc:	10bfffcc 	andi	r2,r2,65535
   210c0:	1004d07a 	srli	r2,r2,1
   210c4:	10ffffcc 	andi	r3,r2,65535
   210c8:	d0a0018b 	ldhu	r2,-32762(gp)
   210cc:	10bfffcc 	andi	r2,r2,65535
   210d0:	1004d07a 	srli	r2,r2,1
   210d4:	10bfffcc 	andi	r2,r2,65535
   210d8:	1887c83a 	sub	r3,r3,r2
   210dc:	00800134 	movhi	r2,4
   210e0:	10841504 	addi	r2,r2,4180
   210e4:	10c00035 	stwio	r3,0(r2)

  IOWR(TERASIC_AUTO_FOCUS_0_BASE,REG_SCAL, focus_scal*256 + focus_scal_f); // scan 0 -> 1023 , step: SCAL , to find STEP_UP
   210e8:	d0a00203 	ldbu	r2,-32760(gp)
   210ec:	10803fcc 	andi	r2,r2,255
   210f0:	1006923a 	slli	r3,r2,8
   210f4:	d0a00243 	ldbu	r2,-32759(gp)
   210f8:	10803fcc 	andi	r2,r2,255
   210fc:	1887883a 	add	r3,r3,r2
   21100:	00800134 	movhi	r2,4
   21104:	10841604 	addi	r2,r2,4184
   21108:	10c00035 	stwio	r3,0(r2)
                                                                          //  scan STEP_UP + - SCAL/2 , step: SCAL_F
  IOWR(TERASIC_AUTO_FOCUS_0_BASE,REG_TH, focus_th);
   2110c:	d0a00283 	ldbu	r2,-32758(gp)
   21110:	10c03fcc 	andi	r3,r2,255
   21114:	00800134 	movhi	r2,4
   21118:	10841704 	addi	r2,r2,4188
   2111c:	10c00035 	stwio	r3,0(r2)

  //////////// focus at initial time
  usleep(100);
   21120:	01001904 	movi	r4,100
   21124:	0031a340 	call	31a34 <usleep>
  IOWR(TERASIC_AUTO_FOCUS_0_BASE,REG_GO, 1);
   21128:	00c00044 	movi	r3,1
   2112c:	00800134 	movhi	r2,4
   21130:	10841004 	addi	r2,r2,4160
   21134:	10c00035 	stwio	r3,0(r2)
  usleep(2);
   21138:	01000084 	movi	r4,2
   2113c:	0031a340 	call	31a34 <usleep>
  IOWR(TERASIC_AUTO_FOCUS_0_BASE,REG_GO, 0);
   21140:	0007883a 	mov	r3,zero
   21144:	00800134 	movhi	r2,4
   21148:	10841004 	addi	r2,r2,4160
   2114c:	10c00035 	stwio	r3,0(r2)
}
   21150:	0001883a 	nop
   21154:	e037883a 	mov	sp,fp
   21158:	dfc00117 	ldw	ra,4(sp)
   2115c:	df000017 	ldw	fp,0(sp)
   21160:	dec00204 	addi	sp,sp,8
   21164:	f800283a 	ret

00021168 <Focus_Window>:

alt_u16 Focus_Window(int x,int y){
   21168:	defffa04 	addi	sp,sp,-24
   2116c:	dfc00515 	stw	ra,20(sp)
   21170:	df000415 	stw	fp,16(sp)
   21174:	df000404 	addi	fp,sp,16
   21178:	e13ffe15 	stw	r4,-8(fp)
   2117c:	e17fff15 	stw	r5,-4(fp)
   alt_u16 x_start,y_start;
   alt_u16 end_focus;

   if(Focus_Released()) { // pre focus done
   21180:	00213480 	call	21348 <Focus_Released>
   21184:	10006a26 	beq	r2,zero,21330 <Focus_Window+0x1c8>
	   IOWR(TERASIC_AUTO_FOCUS_0_BASE,REG_CTRL, 1);// focus mode : 1: window-screen, 0: full-screen
   21188:	00c00044 	movi	r3,1
   2118c:	00800134 	movhi	r2,4
   21190:	10841104 	addi	r2,r2,4164
   21194:	10c00035 	stwio	r3,0(r2)

	   if(( x -  focus_width/2) < 0 ) x_start = 0;
   21198:	d0a0010b 	ldhu	r2,-32764(gp)
   2119c:	10bfffcc 	andi	r2,r2,65535
   211a0:	1004d07a 	srli	r2,r2,1
   211a4:	10bfffcc 	andi	r2,r2,65535
   211a8:	e0fffe17 	ldw	r3,-8(fp)
   211ac:	1885c83a 	sub	r2,r3,r2
   211b0:	1000020e 	bge	r2,zero,211bc <Focus_Window+0x54>
   211b4:	e03ffc0d 	sth	zero,-16(fp)
   211b8:	00001606 	br	21214 <Focus_Window+0xac>
	   else if(( x + focus_width/2 ) > video_w )  x_start = video_w -1 -focus_width;
   211bc:	d0a0010b 	ldhu	r2,-32764(gp)
   211c0:	10bfffcc 	andi	r2,r2,65535
   211c4:	1004d07a 	srli	r2,r2,1
   211c8:	10ffffcc 	andi	r3,r2,65535
   211cc:	e0bffe17 	ldw	r2,-8(fp)
   211d0:	1885883a 	add	r2,r3,r2
   211d4:	d0e0000b 	ldhu	r3,-32768(gp)
   211d8:	18ffffcc 	andi	r3,r3,65535
   211dc:	1880060e 	bge	r3,r2,211f8 <Focus_Window+0x90>
   211e0:	d0e0000b 	ldhu	r3,-32768(gp)
   211e4:	d0a0010b 	ldhu	r2,-32764(gp)
   211e8:	1885c83a 	sub	r2,r3,r2
   211ec:	10bfffc4 	addi	r2,r2,-1
   211f0:	e0bffc0d 	sth	r2,-16(fp)
   211f4:	00000706 	br	21214 <Focus_Window+0xac>
	   else x_start = x - focus_width/2;
   211f8:	e0bffe17 	ldw	r2,-8(fp)
   211fc:	1007883a 	mov	r3,r2
   21200:	d0a0010b 	ldhu	r2,-32764(gp)
   21204:	10bfffcc 	andi	r2,r2,65535
   21208:	1004d07a 	srli	r2,r2,1
   2120c:	1885c83a 	sub	r2,r3,r2
   21210:	e0bffc0d 	sth	r2,-16(fp)

	   if(( y -  focus_height/2) < 0 ) y_start = 0;
   21214:	d0a0018b 	ldhu	r2,-32762(gp)
   21218:	10bfffcc 	andi	r2,r2,65535
   2121c:	1004d07a 	srli	r2,r2,1
   21220:	10bfffcc 	andi	r2,r2,65535
   21224:	e0ffff17 	ldw	r3,-4(fp)
   21228:	1885c83a 	sub	r2,r3,r2
   2122c:	1000020e 	bge	r2,zero,21238 <Focus_Window+0xd0>
   21230:	e03ffc8d 	sth	zero,-14(fp)
   21234:	00001606 	br	21290 <Focus_Window+0x128>
	   else if(( y + focus_height/2 ) > video_h )  y_start = video_h -1 -focus_height;
   21238:	d0a0018b 	ldhu	r2,-32762(gp)
   2123c:	10bfffcc 	andi	r2,r2,65535
   21240:	1004d07a 	srli	r2,r2,1
   21244:	10ffffcc 	andi	r3,r2,65535
   21248:	e0bfff17 	ldw	r2,-4(fp)
   2124c:	1885883a 	add	r2,r3,r2
   21250:	d0e0008b 	ldhu	r3,-32766(gp)
   21254:	18ffffcc 	andi	r3,r3,65535
   21258:	1880060e 	bge	r3,r2,21274 <Focus_Window+0x10c>
   2125c:	d0e0008b 	ldhu	r3,-32766(gp)
   21260:	d0a0018b 	ldhu	r2,-32762(gp)
   21264:	1885c83a 	sub	r2,r3,r2
   21268:	10bfffc4 	addi	r2,r2,-1
   2126c:	e0bffc8d 	sth	r2,-14(fp)
   21270:	00000706 	br	21290 <Focus_Window+0x128>
	   else y_start = y - focus_height/2;
   21274:	e0bfff17 	ldw	r2,-4(fp)
   21278:	1007883a 	mov	r3,r2
   2127c:	d0a0018b 	ldhu	r2,-32762(gp)
   21280:	10bfffcc 	andi	r2,r2,65535
   21284:	1004d07a 	srli	r2,r2,1
   21288:	1885c83a 	sub	r2,r3,r2
   2128c:	e0bffc8d 	sth	r2,-14(fp)

	   printf("x_start= %d,y_start= %d\n",x_start,y_start);
   21290:	e0bffc0b 	ldhu	r2,-16(fp)
   21294:	e0fffc8b 	ldhu	r3,-14(fp)
   21298:	180d883a 	mov	r6,r3
   2129c:	100b883a 	mov	r5,r2
   212a0:	010000f4 	movhi	r4,3
   212a4:	21106004 	addi	r4,r4,16768
   212a8:	0024edc0 	call	24edc <printf>

	   IOWR(TERASIC_AUTO_FOCUS_0_BASE,REG_FOCUS_X_START, x_start);//x_start
   212ac:	e0fffc0b 	ldhu	r3,-16(fp)
   212b0:	00800134 	movhi	r2,4
   212b4:	10841404 	addi	r2,r2,4176
   212b8:	10c00035 	stwio	r3,0(r2)
	   IOWR(TERASIC_AUTO_FOCUS_0_BASE,REG_FOCUS_Y_START, y_start);//y_start
   212bc:	e0fffc8b 	ldhu	r3,-14(fp)
   212c0:	00800134 	movhi	r2,4
   212c4:	10841504 	addi	r2,r2,4180
   212c8:	10c00035 	stwio	r3,0(r2)

	   usleep(10);
   212cc:	01000284 	movi	r4,10
   212d0:	0031a340 	call	31a34 <usleep>

	   IOWR(TERASIC_AUTO_FOCUS_0_BASE,REG_GO, 1);
   212d4:	00c00044 	movi	r3,1
   212d8:	00800134 	movhi	r2,4
   212dc:	10841004 	addi	r2,r2,4160
   212e0:	10c00035 	stwio	r3,0(r2)
	   usleep(2);
   212e4:	01000084 	movi	r4,2
   212e8:	0031a340 	call	31a34 <usleep>
	   IOWR(TERASIC_AUTO_FOCUS_0_BASE,REG_GO, 0);
   212ec:	0007883a 	mov	r3,zero
   212f0:	00800134 	movhi	r2,4
   212f4:	10841004 	addi	r2,r2,4160
   212f8:	10c00035 	stwio	r3,0(r2)
	   Focus_Released();
   212fc:	00213480 	call	21348 <Focus_Released>

	   end_focus = IORD(TERASIC_AUTO_FOCUS_0_BASE,REG_STATUS)&0x0FFF;
   21300:	00800134 	movhi	r2,4
   21304:	10841004 	addi	r2,r2,4160
   21308:	10800037 	ldwio	r2,0(r2)
   2130c:	1083ffcc 	andi	r2,r2,4095
   21310:	e0bffd0d 	sth	r2,-12(fp)
	   printf("end_focus = %d \n",end_focus);
   21314:	e0bffd0b 	ldhu	r2,-12(fp)
   21318:	100b883a 	mov	r5,r2
   2131c:	010000f4 	movhi	r4,3
   21320:	21106704 	addi	r4,r4,16796
   21324:	0024edc0 	call	24edc <printf>

	   return end_focus;
   21328:	e0bffd0b 	ldhu	r2,-12(fp)
   2132c:	00000106 	br	21334 <Focus_Window+0x1cc>

   }
   return end_focus;
   21330:	e0bffd0b 	ldhu	r2,-12(fp)

}
   21334:	e037883a 	mov	sp,fp
   21338:	dfc00117 	ldw	ra,4(sp)
   2133c:	df000017 	ldw	fp,0(sp)
   21340:	dec00204 	addi	sp,sp,8
   21344:	f800283a 	ret

00021348 <Focus_Released>:

int Focus_Released(void){
   21348:	defffc04 	addi	sp,sp,-16
   2134c:	dfc00315 	stw	ra,12(sp)
   21350:	df000215 	stw	fp,8(sp)
   21354:	df000204 	addi	fp,sp,8
  int Released = FALSE;
   21358:	e03ffe15 	stw	zero,-8(fp)
 * alt_nticks() returns the elapsed number of system clock ticks since reset.
 */

static ALT_INLINE alt_u32 ALT_ALWAYS_INLINE alt_nticks (void)
{
  return _alt_nticks;
   2135c:	00800134 	movhi	r2,4
   21360:	10a3da04 	addi	r2,r2,-28824
   21364:	10c00017 	ldw	r3,0(r2)
 * Obtain the system clock rate in ticks/s. 
 */

static ALT_INLINE alt_u32 ALT_ALWAYS_INLINE alt_ticks_per_second (void)
{
  return _alt_tick_rate;
   21368:	00800134 	movhi	r2,4
   2136c:	10a3d904 	addi	r2,r2,-28828
   21370:	10800017 	ldw	r2,0(r2)
  alt_u32 TimeOut;

  TimeOut = alt_nticks() + alt_ticks_per_second()*8;
   21374:	100490fa 	slli	r2,r2,3
   21378:	1885883a 	add	r2,r3,r2
   2137c:	e0bfff15 	stw	r2,-4(fp)

  while((IORD(TERASIC_AUTO_FOCUS_0_BASE,REG_STATUS)&0x8000) ==0 && alt_nticks() < TimeOut ); // waiting for VCM release I2C bus
   21380:	0001883a 	nop
   21384:	00800134 	movhi	r2,4
   21388:	10841004 	addi	r2,r2,4160
   2138c:	10800037 	ldwio	r2,0(r2)
   21390:	10a0000c 	andi	r2,r2,32768
   21394:	1000051e 	bne	r2,zero,213ac <Focus_Released+0x64>
 * alt_nticks() returns the elapsed number of system clock ticks since reset.
 */

static ALT_INLINE alt_u32 ALT_ALWAYS_INLINE alt_nticks (void)
{
  return _alt_nticks;
   21398:	00800134 	movhi	r2,4
   2139c:	10a3da04 	addi	r2,r2,-28824
   213a0:	10c00017 	ldw	r3,0(r2)
   213a4:	e0bfff17 	ldw	r2,-4(fp)
   213a8:	18bff636 	bltu	r3,r2,21384 <__alt_data_end+0xfffe1f84>
   213ac:	00800134 	movhi	r2,4
   213b0:	10a3da04 	addi	r2,r2,-28824
   213b4:	10c00017 	ldw	r3,0(r2)

  if(alt_nticks() < TimeOut ) Released = TRUE;
   213b8:	e0bfff17 	ldw	r2,-4(fp)
   213bc:	1880032e 	bgeu	r3,r2,213cc <Focus_Released+0x84>
   213c0:	00800044 	movi	r2,1
   213c4:	e0bffe15 	stw	r2,-8(fp)
   213c8:	00000306 	br	213d8 <Focus_Released+0x90>
  else printf("\n =>Released check TimeOut!\n");
   213cc:	010000f4 	movhi	r4,3
   213d0:	21106c04 	addi	r4,r4,16816
   213d4:	0024fd80 	call	24fd8 <puts>

  usleep(10000);
   213d8:	0109c404 	movi	r4,10000
   213dc:	0031a340 	call	31a34 <usleep>

  return Released;
   213e0:	e0bffe17 	ldw	r2,-8(fp)
}
   213e4:	e037883a 	mov	sp,fp
   213e8:	dfc00117 	ldw	ra,4(sp)
   213ec:	df000017 	ldw	fp,0(sp)
   213f0:	dec00204 	addi	sp,sp,8
   213f4:	f800283a 	ret

000213f8 <mipi_clear_error>:
// Variables used to count time
alt_u8    ack=0, stop_ticks=0, acc_ticks=0;
alt_u16   mem_ticks=0;

// MIPI
void mipi_clear_error(void){
   213f8:	defffe04 	addi	sp,sp,-8
   213fc:	dfc00115 	stw	ra,4(sp)
   21400:	df000015 	stw	fp,0(sp)
   21404:	d839883a 	mov	fp,sp
  MipiBridgeRegWrite(MIPI_REG_CSIStatus,0x01FF); // clear error
   21408:	01407fc4 	movi	r5,511
   2140c:	01001904 	movi	r4,100
   21410:	002362c0 	call	2362c <MipiBridgeRegWrite>
	MipiBridgeRegWrite(MIPI_REG_MDLSynErr,0x0000); // clear error
   21414:	000b883a 	mov	r5,zero
   21418:	01001a04 	movi	r4,104
   2141c:	002362c0 	call	2362c <MipiBridgeRegWrite>
	MipiBridgeRegWrite(MIPI_REG_FrmErrCnt,0x0000); // clear error
   21420:	000b883a 	mov	r5,zero
   21424:	01002004 	movi	r4,128
   21428:	002362c0 	call	2362c <MipiBridgeRegWrite>
	MipiBridgeRegWrite(MIPI_REG_MDLErrCnt, 0x0000); // clear error
   2142c:	000b883a 	mov	r5,zero
   21430:	01002404 	movi	r4,144
   21434:	002362c0 	call	2362c <MipiBridgeRegWrite>

  MipiBridgeRegWrite(0x0082,0x00);
   21438:	000b883a 	mov	r5,zero
   2143c:	01002084 	movi	r4,130
   21440:	002362c0 	call	2362c <MipiBridgeRegWrite>
	MipiBridgeRegWrite(0x0084,0x00);
   21444:	000b883a 	mov	r5,zero
   21448:	01002104 	movi	r4,132
   2144c:	002362c0 	call	2362c <MipiBridgeRegWrite>
	MipiBridgeRegWrite(0x0086,0x00);
   21450:	000b883a 	mov	r5,zero
   21454:	01002184 	movi	r4,134
   21458:	002362c0 	call	2362c <MipiBridgeRegWrite>
	MipiBridgeRegWrite(0x0088,0x00);
   2145c:	000b883a 	mov	r5,zero
   21460:	01002204 	movi	r4,136
   21464:	002362c0 	call	2362c <MipiBridgeRegWrite>
	MipiBridgeRegWrite(0x008A,0x00);
   21468:	000b883a 	mov	r5,zero
   2146c:	01002284 	movi	r4,138
   21470:	002362c0 	call	2362c <MipiBridgeRegWrite>
	MipiBridgeRegWrite(0x008C,0x00);
   21474:	000b883a 	mov	r5,zero
   21478:	01002304 	movi	r4,140
   2147c:	002362c0 	call	2362c <MipiBridgeRegWrite>
	MipiBridgeRegWrite(0x008E,0x00);
   21480:	000b883a 	mov	r5,zero
   21484:	01002384 	movi	r4,142
   21488:	002362c0 	call	2362c <MipiBridgeRegWrite>
	MipiBridgeRegWrite(0x0090,0x00);
   2148c:	000b883a 	mov	r5,zero
   21490:	01002404 	movi	r4,144
   21494:	002362c0 	call	2362c <MipiBridgeRegWrite>
}
   21498:	0001883a 	nop
   2149c:	e037883a 	mov	sp,fp
   214a0:	dfc00117 	ldw	ra,4(sp)
   214a4:	df000017 	ldw	fp,0(sp)
   214a8:	dec00204 	addi	sp,sp,8
   214ac:	f800283a 	ret

000214b0 <mipi_show_error_info>:

void mipi_show_error_info(void){
   214b0:	defff904 	addi	sp,sp,-28
   214b4:	dfc00615 	stw	ra,24(sp)
   214b8:	df000515 	stw	fp,20(sp)
   214bc:	df000504 	addi	fp,sp,20

	alt_u16 PHY_status, SCI_status, MDLSynErr, FrmErrCnt, MDLErrCnt;

	PHY_status = MipiBridgeRegRead(MIPI_REG_PHYSta);
   214c0:	01001884 	movi	r4,98
   214c4:	00236980 	call	23698 <MipiBridgeRegRead>
   214c8:	e0bffd0d 	sth	r2,-12(fp)
	SCI_status = MipiBridgeRegRead(MIPI_REG_CSIStatus);
   214cc:	01001904 	movi	r4,100
   214d0:	00236980 	call	23698 <MipiBridgeRegRead>
   214d4:	e0bffd8d 	sth	r2,-10(fp)
	MDLSynErr = MipiBridgeRegRead(MIPI_REG_MDLSynErr);
   214d8:	01001a04 	movi	r4,104
   214dc:	00236980 	call	23698 <MipiBridgeRegRead>
   214e0:	e0bffe0d 	sth	r2,-8(fp)
	FrmErrCnt = MipiBridgeRegRead(MIPI_REG_FrmErrCnt);
   214e4:	01002004 	movi	r4,128
   214e8:	00236980 	call	23698 <MipiBridgeRegRead>
   214ec:	e0bffe8d 	sth	r2,-6(fp)
	MDLErrCnt = MipiBridgeRegRead(MIPI_REG_MDLErrCnt);
   214f0:	01002404 	movi	r4,144
   214f4:	00236980 	call	23698 <MipiBridgeRegRead>
   214f8:	e0bfff0d 	sth	r2,-4(fp)

	printf("PHY_status=%xh, CSI_status=%xh, MDLSynErr=%xh, FrmErrCnt=%xh, MDLErrCnt=%xh\r\n", PHY_status, SCI_status, MDLSynErr,FrmErrCnt, MDLErrCnt);
   214fc:	e13ffd0b 	ldhu	r4,-12(fp)
   21500:	e17ffd8b 	ldhu	r5,-10(fp)
   21504:	e1bffe0b 	ldhu	r6,-8(fp)
   21508:	e0bffe8b 	ldhu	r2,-6(fp)
   2150c:	e0ffff0b 	ldhu	r3,-4(fp)
   21510:	d8c00115 	stw	r3,4(sp)
   21514:	d8800015 	stw	r2,0(sp)
   21518:	300f883a 	mov	r7,r6
   2151c:	280d883a 	mov	r6,r5
   21520:	200b883a 	mov	r5,r4
   21524:	010000f4 	movhi	r4,3
   21528:	21107404 	addi	r4,r4,16848
   2152c:	0024edc0 	call	24edc <printf>
}
   21530:	0001883a 	nop
   21534:	e037883a 	mov	sp,fp
   21538:	dfc00117 	ldw	ra,4(sp)
   2153c:	df000017 	ldw	fp,0(sp)
   21540:	dec00204 	addi	sp,sp,8
   21544:	f800283a 	ret

00021548 <mipi_show_error_info_more>:

void mipi_show_error_info_more(void){
   21548:	defffe04 	addi	sp,sp,-8
   2154c:	dfc00115 	stw	ra,4(sp)
   21550:	df000015 	stw	fp,0(sp)
   21554:	d839883a 	mov	fp,sp
    printf("FrmErrCnt = %d\n",MipiBridgeRegRead(0x0080));
   21558:	01002004 	movi	r4,128
   2155c:	00236980 	call	23698 <MipiBridgeRegRead>
   21560:	10bfffcc 	andi	r2,r2,65535
   21564:	100b883a 	mov	r5,r2
   21568:	010000f4 	movhi	r4,3
   2156c:	21108804 	addi	r4,r4,16928
   21570:	0024edc0 	call	24edc <printf>
    printf("CRCErrCnt = %d\n",MipiBridgeRegRead(0x0082));
   21574:	01002084 	movi	r4,130
   21578:	00236980 	call	23698 <MipiBridgeRegRead>
   2157c:	10bfffcc 	andi	r2,r2,65535
   21580:	100b883a 	mov	r5,r2
   21584:	010000f4 	movhi	r4,3
   21588:	21108c04 	addi	r4,r4,16944
   2158c:	0024edc0 	call	24edc <printf>
    printf("CorErrCnt = %d\n",MipiBridgeRegRead(0x0084));
   21590:	01002104 	movi	r4,132
   21594:	00236980 	call	23698 <MipiBridgeRegRead>
   21598:	10bfffcc 	andi	r2,r2,65535
   2159c:	100b883a 	mov	r5,r2
   215a0:	010000f4 	movhi	r4,3
   215a4:	21109004 	addi	r4,r4,16960
   215a8:	0024edc0 	call	24edc <printf>
    printf("HdrErrCnt = %d\n",MipiBridgeRegRead(0x0086));
   215ac:	01002184 	movi	r4,134
   215b0:	00236980 	call	23698 <MipiBridgeRegRead>
   215b4:	10bfffcc 	andi	r2,r2,65535
   215b8:	100b883a 	mov	r5,r2
   215bc:	010000f4 	movhi	r4,3
   215c0:	21109404 	addi	r4,r4,16976
   215c4:	0024edc0 	call	24edc <printf>
    printf("EIDErrCnt = %d\n",MipiBridgeRegRead(0x0088));
   215c8:	01002204 	movi	r4,136
   215cc:	00236980 	call	23698 <MipiBridgeRegRead>
   215d0:	10bfffcc 	andi	r2,r2,65535
   215d4:	100b883a 	mov	r5,r2
   215d8:	010000f4 	movhi	r4,3
   215dc:	21109804 	addi	r4,r4,16992
   215e0:	0024edc0 	call	24edc <printf>
    printf("CtlErrCnt = %d\n",MipiBridgeRegRead(0x008A));
   215e4:	01002284 	movi	r4,138
   215e8:	00236980 	call	23698 <MipiBridgeRegRead>
   215ec:	10bfffcc 	andi	r2,r2,65535
   215f0:	100b883a 	mov	r5,r2
   215f4:	010000f4 	movhi	r4,3
   215f8:	21109c04 	addi	r4,r4,17008
   215fc:	0024edc0 	call	24edc <printf>
    printf("SoTErrCnt = %d\n",MipiBridgeRegRead(0x008C));
   21600:	01002304 	movi	r4,140
   21604:	00236980 	call	23698 <MipiBridgeRegRead>
   21608:	10bfffcc 	andi	r2,r2,65535
   2160c:	100b883a 	mov	r5,r2
   21610:	010000f4 	movhi	r4,3
   21614:	2110a004 	addi	r4,r4,17024
   21618:	0024edc0 	call	24edc <printf>
    printf("SynErrCnt = %d\n",MipiBridgeRegRead(0x008E));
   2161c:	01002384 	movi	r4,142
   21620:	00236980 	call	23698 <MipiBridgeRegRead>
   21624:	10bfffcc 	andi	r2,r2,65535
   21628:	100b883a 	mov	r5,r2
   2162c:	010000f4 	movhi	r4,3
   21630:	2110a404 	addi	r4,r4,17040
   21634:	0024edc0 	call	24edc <printf>
    printf("MDLErrCnt = %d\n",MipiBridgeRegRead(0x0090));
   21638:	01002404 	movi	r4,144
   2163c:	00236980 	call	23698 <MipiBridgeRegRead>
   21640:	10bfffcc 	andi	r2,r2,65535
   21644:	100b883a 	mov	r5,r2
   21648:	010000f4 	movhi	r4,3
   2164c:	2110a804 	addi	r4,r4,17056
   21650:	0024edc0 	call	24edc <printf>
    printf("FIFOSTATUS = %d\n",MipiBridgeRegRead(0x00F8));
   21654:	01003e04 	movi	r4,248
   21658:	00236980 	call	23698 <MipiBridgeRegRead>
   2165c:	10bfffcc 	andi	r2,r2,65535
   21660:	100b883a 	mov	r5,r2
   21664:	010000f4 	movhi	r4,3
   21668:	2110ac04 	addi	r4,r4,17072
   2166c:	0024edc0 	call	24edc <printf>
    printf("DataType = 0x%04x\n",MipiBridgeRegRead(0x006A));
   21670:	01001a84 	movi	r4,106
   21674:	00236980 	call	23698 <MipiBridgeRegRead>
   21678:	10bfffcc 	andi	r2,r2,65535
   2167c:	100b883a 	mov	r5,r2
   21680:	010000f4 	movhi	r4,3
   21684:	2110b104 	addi	r4,r4,17092
   21688:	0024edc0 	call	24edc <printf>
    printf("CSIPktLen = %d\n",MipiBridgeRegRead(0x006E));
   2168c:	01001b84 	movi	r4,110
   21690:	00236980 	call	23698 <MipiBridgeRegRead>
   21694:	10bfffcc 	andi	r2,r2,65535
   21698:	100b883a 	mov	r5,r2
   2169c:	010000f4 	movhi	r4,3
   216a0:	2110b604 	addi	r4,r4,17112
   216a4:	0024edc0 	call	24edc <printf>
}
   216a8:	0001883a 	nop
   216ac:	e037883a 	mov	sp,fp
   216b0:	dfc00117 	ldw	ra,4(sp)
   216b4:	df000017 	ldw	fp,0(sp)
   216b8:	dec00204 	addi	sp,sp,8
   216bc:	f800283a 	ret

000216c0 <MIPI_Init>:

bool MIPI_Init(void){
   216c0:	defffd04 	addi	sp,sp,-12
   216c4:	dfc00215 	stw	ra,8(sp)
   216c8:	df000115 	stw	fp,4(sp)
   216cc:	df000104 	addi	fp,sp,4

		bool bSuccess;

		bSuccess = oc_i2c_init_ex(I2C_OPENCORES_MIPI_BASE, 50*1000*1000,400*1000); //I2C: 400K
   216d0:	018001b4 	movhi	r6,6
   216d4:	3186a004 	addi	r6,r6,6784
   216d8:	0140bef4 	movhi	r5,763
   216dc:	297c2004 	addi	r5,r5,-3968
   216e0:	01000134 	movhi	r4,4
   216e4:	21042004 	addi	r4,r4,4224
   216e8:	002039c0 	call	2039c <oc_i2c_init_ex>
   216ec:	e0bfff15 	stw	r2,-4(fp)
		if (!bSuccess)
   216f0:	e0bfff17 	ldw	r2,-4(fp)
   216f4:	1000031e 	bne	r2,zero,21704 <MIPI_Init+0x44>
				printf("failed to init MIPI- Bridge i2c\r\n");
   216f8:	010000f4 	movhi	r4,3
   216fc:	2110ba04 	addi	r4,r4,17128
   21700:	0024fd80 	call	24fd8 <puts>

    usleep(50*1000);
   21704:	0130d414 	movui	r4,50000
   21708:	0031a340 	call	31a34 <usleep>
    MipiBridgeInit();
   2170c:	00237100 	call	23710 <MipiBridgeInit>

    usleep(500*1000);
   21710:	01000234 	movhi	r4,8
   21714:	21284804 	addi	r4,r4,-24288
   21718:	0031a340 	call	31a34 <usleep>
    MipiCameraInit();
   2171c:	0023ef40 	call	23ef4 <MipiCameraInit>
    MIPI_BIN_LEVEL(3);
   21720:	010000c4 	movi	r4,3
   21724:	0023d340 	call	23d34 <MIPI_BIN_LEVEL>

 		usleep(1000);
   21728:	0100fa04 	movi	r4,1000
   2172c:	0031a340 	call	31a34 <usleep>
		return bSuccess;
   21730:	e0bfff17 	ldw	r2,-4(fp)
}
   21734:	e037883a 	mov	sp,fp
   21738:	dfc00117 	ldw	ra,4(sp)
   2173c:	df000017 	ldw	fp,0(sp)
   21740:	dec00204 	addi	sp,sp,8
   21744:	f800283a 	ret

00021748 <initArray_u8>:

// Functions for using dynamic array data types
void initArray_u8(array_u8 *a, size_t init_size){
   21748:	defffc04 	addi	sp,sp,-16
   2174c:	dfc00315 	stw	ra,12(sp)
   21750:	df000215 	stw	fp,8(sp)
   21754:	df000204 	addi	fp,sp,8
   21758:	e13ffe15 	stw	r4,-8(fp)
   2175c:	e17fff15 	stw	r5,-4(fp)

  a->data = malloc(init_size * sizeof(alt_u8));
   21760:	e13fff17 	ldw	r4,-4(fp)
   21764:	00245500 	call	24550 <malloc>
   21768:	1007883a 	mov	r3,r2
   2176c:	e0bffe17 	ldw	r2,-8(fp)
   21770:	10c00015 	stw	r3,0(r2)
  a->used = 0;
   21774:	e0bffe17 	ldw	r2,-8(fp)
   21778:	10000115 	stw	zero,4(r2)
  a->size = init_size;
   2177c:	e0bffe17 	ldw	r2,-8(fp)
   21780:	e0ffff17 	ldw	r3,-4(fp)
   21784:	10c00215 	stw	r3,8(r2)
}
   21788:	0001883a 	nop
   2178c:	e037883a 	mov	sp,fp
   21790:	dfc00117 	ldw	ra,4(sp)
   21794:	df000017 	ldw	fp,0(sp)
   21798:	dec00204 	addi	sp,sp,8
   2179c:	f800283a 	ret

000217a0 <appendArray_u8>:

void appendArray_u8(array_u8 *a, alt_u8 element){
   217a0:	defffc04 	addi	sp,sp,-16
   217a4:	dfc00315 	stw	ra,12(sp)
   217a8:	df000215 	stw	fp,8(sp)
   217ac:	df000204 	addi	fp,sp,8
   217b0:	e13ffe15 	stw	r4,-8(fp)
   217b4:	2805883a 	mov	r2,r5
   217b8:	e0bfff05 	stb	r2,-4(fp)

  if (a->used == a->size){
   217bc:	e0bffe17 	ldw	r2,-8(fp)
   217c0:	10c00117 	ldw	r3,4(r2)
   217c4:	e0bffe17 	ldw	r2,-8(fp)
   217c8:	10800217 	ldw	r2,8(r2)
   217cc:	1880101e 	bne	r3,r2,21810 <appendArray_u8+0x70>
    a->data = realloc(a->data, a->size * sizeof(alt_u8));
   217d0:	e0bffe17 	ldw	r2,-8(fp)
   217d4:	10c00017 	ldw	r3,0(r2)
   217d8:	e0bffe17 	ldw	r2,-8(fp)
   217dc:	10800217 	ldw	r2,8(r2)
   217e0:	100b883a 	mov	r5,r2
   217e4:	1809883a 	mov	r4,r3
   217e8:	0024fec0 	call	24fec <realloc>
   217ec:	1007883a 	mov	r3,r2
   217f0:	e0bffe17 	ldw	r2,-8(fp)
   217f4:	10c00015 	stw	r3,0(r2)
    a->size *= 2;
   217f8:	e0bffe17 	ldw	r2,-8(fp)
   217fc:	10800217 	ldw	r2,8(r2)
   21800:	1085883a 	add	r2,r2,r2
   21804:	1007883a 	mov	r3,r2
   21808:	e0bffe17 	ldw	r2,-8(fp)
   2180c:	10c00215 	stw	r3,8(r2)
  }
  a->data[a->used] = element;
   21810:	e0bffe17 	ldw	r2,-8(fp)
   21814:	10c00017 	ldw	r3,0(r2)
   21818:	e0bffe17 	ldw	r2,-8(fp)
   2181c:	10800117 	ldw	r2,4(r2)
   21820:	1885883a 	add	r2,r3,r2
   21824:	e0ffff03 	ldbu	r3,-4(fp)
   21828:	10c00005 	stb	r3,0(r2)
  a->used++;
   2182c:	e0bffe17 	ldw	r2,-8(fp)
   21830:	10800117 	ldw	r2,4(r2)
   21834:	10c00044 	addi	r3,r2,1
   21838:	e0bffe17 	ldw	r2,-8(fp)
   2183c:	10c00115 	stw	r3,4(r2)
}
   21840:	0001883a 	nop
   21844:	e037883a 	mov	sp,fp
   21848:	dfc00117 	ldw	ra,4(sp)
   2184c:	df000017 	ldw	fp,0(sp)
   21850:	dec00204 	addi	sp,sp,8
   21854:	f800283a 	ret

00021858 <freeArray_u8>:

void freeArray_u8(array_u8 *a){
   21858:	defffd04 	addi	sp,sp,-12
   2185c:	dfc00215 	stw	ra,8(sp)
   21860:	df000115 	stw	fp,4(sp)
   21864:	df000104 	addi	fp,sp,4
   21868:	e13fff15 	stw	r4,-4(fp)
  free(a->data);
   2186c:	e0bfff17 	ldw	r2,-4(fp)
   21870:	10800017 	ldw	r2,0(r2)
   21874:	1009883a 	mov	r4,r2
   21878:	00245640 	call	24564 <free>
  a->data = NULL;
   2187c:	e0bfff17 	ldw	r2,-4(fp)
   21880:	10000015 	stw	zero,0(r2)
  a->used = 0;
   21884:	e0bfff17 	ldw	r2,-4(fp)
   21888:	10000115 	stw	zero,4(r2)
  a->size = 0;
   2188c:	e0bfff17 	ldw	r2,-4(fp)
   21890:	10000215 	stw	zero,8(r2)
}
   21894:	0001883a 	nop
   21898:	e037883a 	mov	sp,fp
   2189c:	dfc00117 	ldw	ra,4(sp)
   218a0:	df000017 	ldw	fp,0(sp)
   218a4:	dec00204 	addi	sp,sp,8
   218a8:	f800283a 	ret

000218ac <initArray_u16>:

void initArray_u16(array_u16 *a, size_t init_size){
   218ac:	defffc04 	addi	sp,sp,-16
   218b0:	dfc00315 	stw	ra,12(sp)
   218b4:	df000215 	stw	fp,8(sp)
   218b8:	df000204 	addi	fp,sp,8
   218bc:	e13ffe15 	stw	r4,-8(fp)
   218c0:	e17fff15 	stw	r5,-4(fp)

  a->data = malloc(init_size * sizeof(alt_u16));
   218c4:	e0bfff17 	ldw	r2,-4(fp)
   218c8:	1085883a 	add	r2,r2,r2
   218cc:	1009883a 	mov	r4,r2
   218d0:	00245500 	call	24550 <malloc>
   218d4:	1007883a 	mov	r3,r2
   218d8:	e0bffe17 	ldw	r2,-8(fp)
   218dc:	10c00015 	stw	r3,0(r2)
  a->used = 0;
   218e0:	e0bffe17 	ldw	r2,-8(fp)
   218e4:	10000115 	stw	zero,4(r2)
  a->size = init_size;
   218e8:	e0bffe17 	ldw	r2,-8(fp)
   218ec:	e0ffff17 	ldw	r3,-4(fp)
   218f0:	10c00215 	stw	r3,8(r2)
}
   218f4:	0001883a 	nop
   218f8:	e037883a 	mov	sp,fp
   218fc:	dfc00117 	ldw	ra,4(sp)
   21900:	df000017 	ldw	fp,0(sp)
   21904:	dec00204 	addi	sp,sp,8
   21908:	f800283a 	ret

0002190c <appendArray_u16>:

void appendArray_u16(array_u16 *a, alt_u16 element){
   2190c:	defffc04 	addi	sp,sp,-16
   21910:	dfc00315 	stw	ra,12(sp)
   21914:	df000215 	stw	fp,8(sp)
   21918:	df000204 	addi	fp,sp,8
   2191c:	e13ffe15 	stw	r4,-8(fp)
   21920:	2805883a 	mov	r2,r5
   21924:	e0bfff0d 	sth	r2,-4(fp)

  if (a->used == a->size){
   21928:	e0bffe17 	ldw	r2,-8(fp)
   2192c:	10c00117 	ldw	r3,4(r2)
   21930:	e0bffe17 	ldw	r2,-8(fp)
   21934:	10800217 	ldw	r2,8(r2)
   21938:	1880111e 	bne	r3,r2,21980 <appendArray_u16+0x74>
    a->data = realloc(a->data, a->size * sizeof(alt_u16));
   2193c:	e0bffe17 	ldw	r2,-8(fp)
   21940:	10c00017 	ldw	r3,0(r2)
   21944:	e0bffe17 	ldw	r2,-8(fp)
   21948:	10800217 	ldw	r2,8(r2)
   2194c:	1085883a 	add	r2,r2,r2
   21950:	100b883a 	mov	r5,r2
   21954:	1809883a 	mov	r4,r3
   21958:	0024fec0 	call	24fec <realloc>
   2195c:	1007883a 	mov	r3,r2
   21960:	e0bffe17 	ldw	r2,-8(fp)
   21964:	10c00015 	stw	r3,0(r2)
    a->size *= 2;
   21968:	e0bffe17 	ldw	r2,-8(fp)
   2196c:	10800217 	ldw	r2,8(r2)
   21970:	1085883a 	add	r2,r2,r2
   21974:	1007883a 	mov	r3,r2
   21978:	e0bffe17 	ldw	r2,-8(fp)
   2197c:	10c00215 	stw	r3,8(r2)
  }
  a->data[a->used] = element;
   21980:	e0bffe17 	ldw	r2,-8(fp)
   21984:	10c00017 	ldw	r3,0(r2)
   21988:	e0bffe17 	ldw	r2,-8(fp)
   2198c:	10800117 	ldw	r2,4(r2)
   21990:	1085883a 	add	r2,r2,r2
   21994:	1885883a 	add	r2,r3,r2
   21998:	e0ffff0b 	ldhu	r3,-4(fp)
   2199c:	10c0000d 	sth	r3,0(r2)
  a->used++;
   219a0:	e0bffe17 	ldw	r2,-8(fp)
   219a4:	10800117 	ldw	r2,4(r2)
   219a8:	10c00044 	addi	r3,r2,1
   219ac:	e0bffe17 	ldw	r2,-8(fp)
   219b0:	10c00115 	stw	r3,4(r2)
}
   219b4:	0001883a 	nop
   219b8:	e037883a 	mov	sp,fp
   219bc:	dfc00117 	ldw	ra,4(sp)
   219c0:	df000017 	ldw	fp,0(sp)
   219c4:	dec00204 	addi	sp,sp,8
   219c8:	f800283a 	ret

000219cc <freeArray_u16>:

void freeArray_u16(array_u16 *a){
   219cc:	defffd04 	addi	sp,sp,-12
   219d0:	dfc00215 	stw	ra,8(sp)
   219d4:	df000115 	stw	fp,4(sp)
   219d8:	df000104 	addi	fp,sp,4
   219dc:	e13fff15 	stw	r4,-4(fp)
  free(a->data);
   219e0:	e0bfff17 	ldw	r2,-4(fp)
   219e4:	10800017 	ldw	r2,0(r2)
   219e8:	1009883a 	mov	r4,r2
   219ec:	00245640 	call	24564 <free>
  a->data = NULL;
   219f0:	e0bfff17 	ldw	r2,-4(fp)
   219f4:	10000015 	stw	zero,0(r2)
  a->used = 0;
   219f8:	e0bfff17 	ldw	r2,-4(fp)
   219fc:	10000115 	stw	zero,4(r2)
  a->size = 0;
   21a00:	e0bfff17 	ldw	r2,-4(fp)
   21a04:	10000215 	stw	zero,8(r2)
}
   21a08:	0001883a 	nop
   21a0c:	e037883a 	mov	sp,fp
   21a10:	dfc00117 	ldw	ra,4(sp)
   21a14:	df000017 	ldw	fp,0(sp)
   21a18:	dec00204 	addi	sp,sp,8
   21a1c:	f800283a 	ret

00021a20 <filter_index>:


alt_u8 filter_index(alt_u8 filter_id){
   21a20:	defffe04 	addi	sp,sp,-8
   21a24:	df000115 	stw	fp,4(sp)
   21a28:	df000104 	addi	fp,sp,4
   21a2c:	2005883a 	mov	r2,r4
   21a30:	e0bfff05 	stb	r2,-4(fp)
  switch(filter_id){
   21a34:	e0bfff03 	ldbu	r2,-4(fp)
   21a38:	10bfef84 	addi	r2,r2,-66
   21a3c:	10c00628 	cmpgeui	r3,r2,24
   21a40:	1800281e 	bne	r3,zero,21ae4 <filter_index+0xc4>
   21a44:	100690ba 	slli	r3,r2,2
   21a48:	008000b4 	movhi	r2,2
   21a4c:	10869704 	addi	r2,r2,6748
   21a50:	1885883a 	add	r2,r3,r2
   21a54:	10800017 	ldw	r2,0(r2)
   21a58:	1000683a 	jmp	r2
   21a5c:	00021adc 	xori	zero,zero,2155
   21a60:	00021ae4 	muli	zero,zero,2155
   21a64:	00021ae4 	muli	zero,zero,2155
   21a68:	00021ae4 	muli	zero,zero,2155
   21a6c:	00021ae4 	muli	zero,zero,2155
   21a70:	00021ad4 	movui	zero,2155
   21a74:	00021ae4 	muli	zero,zero,2155
   21a78:	00021ae4 	muli	zero,zero,2155
   21a7c:	00021ae4 	muli	zero,zero,2155
   21a80:	00021ae4 	muli	zero,zero,2155
   21a84:	00021ae4 	muli	zero,zero,2155
   21a88:	00021ae4 	muli	zero,zero,2155
   21a8c:	00021ae4 	muli	zero,zero,2155
   21a90:	00021ae4 	muli	zero,zero,2155
   21a94:	00021ac4 	movi	zero,2155
   21a98:	00021ae4 	muli	zero,zero,2155
   21a9c:	00021abc 	xorhi	zero,zero,2154
   21aa0:	00021ae4 	muli	zero,zero,2155
   21aa4:	00021ae4 	muli	zero,zero,2155
   21aa8:	00021ae4 	muli	zero,zero,2155
   21aac:	00021ae4 	muli	zero,zero,2155
   21ab0:	00021ae4 	muli	zero,zero,2155
   21ab4:	00021ae4 	muli	zero,zero,2155
   21ab8:	00021acc 	andi	zero,zero,2155
    case 'R': {
      return 0;}
   21abc:	0005883a 	mov	r2,zero
   21ac0:	00000906 	br	21ae8 <filter_index+0xc8>
    case 'P': {
      return 1;}
   21ac4:	00800044 	movi	r2,1
   21ac8:	00000706 	br	21ae8 <filter_index+0xc8>
    case 'Y': {
      return 2;}
   21acc:	00800084 	movi	r2,2
   21ad0:	00000506 	br	21ae8 <filter_index+0xc8>
    case 'G': {
      return 3;}
   21ad4:	008000c4 	movi	r2,3
   21ad8:	00000306 	br	21ae8 <filter_index+0xc8>
    case 'B': {
      return 4;}
   21adc:	00800104 	movi	r2,4
   21ae0:	00000106 	br	21ae8 <filter_index+0xc8>
    default:{
      return 0;}
   21ae4:	0005883a 	mov	r2,zero
  }
}
   21ae8:	e037883a 	mov	sp,fp
   21aec:	df000017 	ldw	fp,0(sp)
   21af0:	dec00104 	addi	sp,sp,4
   21af4:	f800283a 	ret

00021af8 <get_filter_id>:

alt_u8 get_filter_id(alt_u8 index){
   21af8:	defffe04 	addi	sp,sp,-8
   21afc:	df000115 	stw	fp,4(sp)
   21b00:	df000104 	addi	fp,sp,4
   21b04:	2005883a 	mov	r2,r4
   21b08:	e0bfff05 	stb	r2,-4(fp)
  switch(index){
   21b0c:	e0bfff03 	ldbu	r2,-4(fp)
   21b10:	10c00168 	cmpgeui	r3,r2,5
   21b14:	1800151e 	bne	r3,zero,21b6c <get_filter_id+0x74>
   21b18:	100690ba 	slli	r3,r2,2
   21b1c:	008000b4 	movhi	r2,2
   21b20:	1086cc04 	addi	r2,r2,6960
   21b24:	1885883a 	add	r2,r3,r2
   21b28:	10800017 	ldw	r2,0(r2)
   21b2c:	1000683a 	jmp	r2
   21b30:	00021b44 	movi	zero,2157
   21b34:	00021b4c 	andi	zero,zero,2157
   21b38:	00021b54 	movui	zero,2157
   21b3c:	00021b5c 	xori	zero,zero,2157
   21b40:	00021b64 	muli	zero,zero,2157
    case 0: {
      return 'R';}
   21b44:	00801484 	movi	r2,82
   21b48:	00000906 	br	21b70 <get_filter_id+0x78>
    case 1: {
      return 'P';}
   21b4c:	00801404 	movi	r2,80
   21b50:	00000706 	br	21b70 <get_filter_id+0x78>
    case 2: {
      return 'Y';}
   21b54:	00801644 	movi	r2,89
   21b58:	00000506 	br	21b70 <get_filter_id+0x78>
    case 3: {
      return 'G';}
   21b5c:	008011c4 	movi	r2,71
   21b60:	00000306 	br	21b70 <get_filter_id+0x78>
    case 4: {
      return 'B';}
   21b64:	00801084 	movi	r2,66
   21b68:	00000106 	br	21b70 <get_filter_id+0x78>
    default:{
      return 'U';}
   21b6c:	00801544 	movi	r2,85
  }
}
   21b70:	e037883a 	mov	sp,fp
   21b74:	df000017 	ldw	fp,0(sp)
   21b78:	dec00104 	addi	sp,sp,4
   21b7c:	f800283a 	ret

00021b80 <send_ball_data>:

void send_ball_data(alt_u8 colour, alt_u8 distance, alt_u8 angle){
   21b80:	defffa04 	addi	sp,sp,-24
   21b84:	dfc00515 	stw	ra,20(sp)
   21b88:	df000415 	stw	fp,16(sp)
   21b8c:	dc000315 	stw	r16,12(sp)
   21b90:	df000404 	addi	fp,sp,16
   21b94:	2807883a 	mov	r3,r5
   21b98:	3005883a 	mov	r2,r6
   21b9c:	e13ffc05 	stb	r4,-16(fp)
   21ba0:	e0fffd05 	stb	r3,-12(fp)
   21ba4:	e0bffe05 	stb	r2,-8(fp)
  if(ctrl_uart){
   21ba8:	00800134 	movhi	r2,4
   21bac:	10a3bd04 	addi	r2,r2,-28940
   21bb0:	10800017 	ldw	r2,0(r2)
   21bb4:	10005e26 	beq	r2,zero,21d30 <send_ball_data+0x1b0>
    if(alt_up_rs232_get_available_space_in_write_FIFO(ctrl_uart)>7){
   21bb8:	00800134 	movhi	r2,4
   21bbc:	10a3bd04 	addi	r2,r2,-28940
   21bc0:	10800017 	ldw	r2,0(r2)
   21bc4:	1009883a 	mov	r4,r2
   21bc8:	0032cb80 	call	32cb8 <alt_up_rs232_get_available_space_in_write_FIFO>
   21bcc:	10800230 	cmpltui	r2,r2,8
   21bd0:	1000571e 	bne	r2,zero,21d30 <send_ball_data+0x1b0>
      alt_up_rs232_write_data(ctrl_uart, 'b');
   21bd4:	00800134 	movhi	r2,4
   21bd8:	10a3bd04 	addi	r2,r2,-28940
   21bdc:	10800017 	ldw	r2,0(r2)
   21be0:	01401884 	movi	r5,98
   21be4:	1009883a 	mov	r4,r2
   21be8:	0032d380 	call	32d38 <alt_up_rs232_write_data>
      alt_up_rs232_write_data(ctrl_uart, colour);
   21bec:	00800134 	movhi	r2,4
   21bf0:	10a3bd04 	addi	r2,r2,-28940
   21bf4:	10800017 	ldw	r2,0(r2)
   21bf8:	e0fffc03 	ldbu	r3,-16(fp)
   21bfc:	180b883a 	mov	r5,r3
   21c00:	1009883a 	mov	r4,r2
   21c04:	0032d380 	call	32d38 <alt_up_rs232_write_data>
      alt_up_rs232_write_data(ctrl_uart, (distance/10)+48);
   21c08:	00800134 	movhi	r2,4
   21c0c:	10a3bd04 	addi	r2,r2,-28940
   21c10:	14000017 	ldw	r16,0(r2)
   21c14:	e0bffd03 	ldbu	r2,-12(fp)
   21c18:	01400284 	movi	r5,10
   21c1c:	1009883a 	mov	r4,r2
   21c20:	00244940 	call	24494 <__udivsi3>
   21c24:	10800c04 	addi	r2,r2,48
   21c28:	10803fcc 	andi	r2,r2,255
   21c2c:	100b883a 	mov	r5,r2
   21c30:	8009883a 	mov	r4,r16
   21c34:	0032d380 	call	32d38 <alt_up_rs232_write_data>
      alt_up_rs232_write_data(ctrl_uart, (distance%10)+48);
   21c38:	00800134 	movhi	r2,4
   21c3c:	10a3bd04 	addi	r2,r2,-28940
   21c40:	14000017 	ldw	r16,0(r2)
   21c44:	e0bffd03 	ldbu	r2,-12(fp)
   21c48:	01400284 	movi	r5,10
   21c4c:	1009883a 	mov	r4,r2
   21c50:	00244f80 	call	244f8 <__umodsi3>
   21c54:	10800c04 	addi	r2,r2,48
   21c58:	10803fcc 	andi	r2,r2,255
   21c5c:	100b883a 	mov	r5,r2
   21c60:	8009883a 	mov	r4,r16
   21c64:	0032d380 	call	32d38 <alt_up_rs232_write_data>
      if(angle<64){
   21c68:	e0bffe03 	ldbu	r2,-8(fp)
   21c6c:	10801028 	cmpgeui	r2,r2,64
   21c70:	1000071e 	bne	r2,zero,21c90 <send_ball_data+0x110>
        alt_up_rs232_write_data(ctrl_uart, '+');
   21c74:	00800134 	movhi	r2,4
   21c78:	10a3bd04 	addi	r2,r2,-28940
   21c7c:	10800017 	ldw	r2,0(r2)
   21c80:	01400ac4 	movi	r5,43
   21c84:	1009883a 	mov	r4,r2
   21c88:	0032d380 	call	32d38 <alt_up_rs232_write_data>
   21c8c:	00000906 	br	21cb4 <send_ball_data+0x134>
      }else{
        angle = -angle;
   21c90:	e0bffe03 	ldbu	r2,-8(fp)
   21c94:	0085c83a 	sub	r2,zero,r2
   21c98:	e0bffe05 	stb	r2,-8(fp)
        alt_up_rs232_write_data(ctrl_uart, '-');
   21c9c:	00800134 	movhi	r2,4
   21ca0:	10a3bd04 	addi	r2,r2,-28940
   21ca4:	10800017 	ldw	r2,0(r2)
   21ca8:	01400b44 	movi	r5,45
   21cac:	1009883a 	mov	r4,r2
   21cb0:	0032d380 	call	32d38 <alt_up_rs232_write_data>
      }
      alt_up_rs232_write_data(ctrl_uart, (angle/10)+48);
   21cb4:	00800134 	movhi	r2,4
   21cb8:	10a3bd04 	addi	r2,r2,-28940
   21cbc:	14000017 	ldw	r16,0(r2)
   21cc0:	e0bffe03 	ldbu	r2,-8(fp)
   21cc4:	01400284 	movi	r5,10
   21cc8:	1009883a 	mov	r4,r2
   21ccc:	00244940 	call	24494 <__udivsi3>
   21cd0:	10800c04 	addi	r2,r2,48
   21cd4:	10803fcc 	andi	r2,r2,255
   21cd8:	100b883a 	mov	r5,r2
   21cdc:	8009883a 	mov	r4,r16
   21ce0:	0032d380 	call	32d38 <alt_up_rs232_write_data>
      alt_up_rs232_write_data(ctrl_uart, (angle%10)+48);
   21ce4:	00800134 	movhi	r2,4
   21ce8:	10a3bd04 	addi	r2,r2,-28940
   21cec:	14000017 	ldw	r16,0(r2)
   21cf0:	e0bffe03 	ldbu	r2,-8(fp)
   21cf4:	01400284 	movi	r5,10
   21cf8:	1009883a 	mov	r4,r2
   21cfc:	00244f80 	call	244f8 <__umodsi3>
   21d00:	10800c04 	addi	r2,r2,48
   21d04:	10803fcc 	andi	r2,r2,255
   21d08:	100b883a 	mov	r5,r2
   21d0c:	8009883a 	mov	r4,r16
   21d10:	0032d380 	call	32d38 <alt_up_rs232_write_data>
      last_colour = colour;
   21d14:	e0bffc03 	ldbu	r2,-16(fp)
   21d18:	d0a00585 	stb	r2,-32746(gp)
      ack = 15;
   21d1c:	008003c4 	movi	r2,15
   21d20:	d0a8d805 	stb	r2,-23712(gp)

      #ifdef VIEW_UART_MSGS
        printf("UART sent: ball data\n");
   21d24:	010000f4 	movhi	r4,3
   21d28:	2110c304 	addi	r4,r4,17164
   21d2c:	0024fd80 	call	24fd8 <puts>
      #endif
    }
  }
}
   21d30:	0001883a 	nop
   21d34:	e6ffff04 	addi	sp,fp,-4
   21d38:	dfc00217 	ldw	ra,8(sp)
   21d3c:	df000117 	ldw	fp,4(sp)
   21d40:	dc000017 	ldw	r16,0(sp)
   21d44:	dec00304 	addi	sp,sp,12
   21d48:	f800283a 	ret

00021d4c <timer_init>:


void timer_init(void* isr){
   21d4c:	defffd04 	addi	sp,sp,-12
   21d50:	dfc00215 	stw	ra,8(sp)
   21d54:	df000115 	stw	fp,4(sp)
   21d58:	df000104 	addi	fp,sp,4
   21d5c:	e13fff15 	stw	r4,-4(fp)

    IOWR_ALTERA_AVALON_TIMER_CONTROL(TIMER_BASE, 0x0003);
   21d60:	00c000c4 	movi	r3,3
   21d64:	00800134 	movhi	r2,4
   21d68:	10840904 	addi	r2,r2,4132
   21d6c:	10c00035 	stwio	r3,0(r2)
    IOWR_ALTERA_AVALON_TIMER_STATUS(TIMER_BASE, 0);
   21d70:	0007883a 	mov	r3,zero
   21d74:	00800134 	movhi	r2,4
   21d78:	10840804 	addi	r2,r2,4128
   21d7c:	10c00035 	stwio	r3,0(r2)
    IOWR_ALTERA_AVALON_TIMER_PERIODL(TIMER_BASE, 0x0900);
   21d80:	00c24004 	movi	r3,2304
   21d84:	00800134 	movhi	r2,4
   21d88:	10840a04 	addi	r2,r2,4136
   21d8c:	10c00035 	stwio	r3,0(r2)
    IOWR_ALTERA_AVALON_TIMER_PERIODH(TIMER_BASE, 0x0000);
   21d90:	0007883a 	mov	r3,zero
   21d94:	00800134 	movhi	r2,4
   21d98:	10840b04 	addi	r2,r2,4140
   21d9c:	10c00035 	stwio	r3,0(r2)
    alt_irq_register(TIMER_IRQ, 0, isr);
   21da0:	e0bfff17 	ldw	r2,-4(fp)
   21da4:	100d883a 	mov	r6,r2
   21da8:	000b883a 	mov	r5,zero
   21dac:	01000104 	movi	r4,4
   21db0:	00310b80 	call	310b8 <alt_irq_register>
    IOWR_ALTERA_AVALON_TIMER_CONTROL(TIMER_BASE, 0x0007);
   21db4:	00c001c4 	movi	r3,7
   21db8:	00800134 	movhi	r2,4
   21dbc:	10840904 	addi	r2,r2,4132
   21dc0:	10c00035 	stwio	r3,0(r2)
}
   21dc4:	0001883a 	nop
   21dc8:	e037883a 	mov	sp,fp
   21dcc:	dfc00117 	ldw	ra,4(sp)
   21dd0:	df000017 	ldw	fp,0(sp)
   21dd4:	dec00204 	addi	sp,sp,8
   21dd8:	f800283a 	ret

00021ddc <sys_timer_isr>:

void sys_timer_isr(){
   21ddc:	defffb04 	addi	sp,sp,-20
   21de0:	dfc00415 	stw	ra,16(sp)
   21de4:	df000315 	stw	fp,12(sp)
   21de8:	dc000215 	stw	r16,8(sp)
   21dec:	df000304 	addi	fp,sp,12

  //////////////////////////////////////////////////////////////////////// - Process button inputs(KEY0 & KEY1)

  if((IORD(KEY_BASE,0)&0x03) == 0x01){           // touch KEY1 to trigger auto focus
   21df0:	00800134 	movhi	r2,4
   21df4:	10843004 	addi	r2,r2,4288
   21df8:	10800037 	ldwio	r2,0(r2)
   21dfc:	108000cc 	andi	r2,r2,3
   21e00:	10800058 	cmpnei	r2,r2,1
   21e04:	10000f1e 	bne	r2,zero,21e44 <sys_timer_isr+0x68>
    Focus_Window(320,240);
   21e08:	01403c04 	movi	r5,240
   21e0c:	01005004 	movi	r4,320
   21e10:	00211680 	call	21168 <Focus_Window>
    moving=0;
   21e14:	d028d7c5 	stb	zero,-23713(gp)
    last_command='c';
   21e18:	008018c4 	movi	r2,99
   21e1c:	d0a00545 	stb	r2,-32747(gp)
    last_colour='U';
   21e20:	00801544 	movi	r2,85
   21e24:	d0a00585 	stb	r2,-32746(gp)
    ack=0;
   21e28:	d028d805 	stb	zero,-23712(gp)
    stop_ticks=0;
   21e2c:	d028d845 	stb	zero,-23711(gp)
    acc_ticks=0;
   21e30:	d028d885 	stb	zero,-23710(gp)
    mem_ticks=0;
   21e34:	d028d90d 	sth	zero,-23708(gp)
    ball_sent.used=0;
   21e38:	00800134 	movhi	r2,4
   21e3c:	10a3f404 	addi	r2,r2,-28720
   21e40:	10000115 	stw	zero,4(r2)
  }
  if((IORD(KEY_BASE,0)&0x03) == 0x02){           // touch KEY0 to trigger gain adjustment
   21e44:	00800134 	movhi	r2,4
   21e48:	10843004 	addi	r2,r2,4288
   21e4c:	10800037 	ldwio	r2,0(r2)
   21e50:	108000cc 	andi	r2,r2,3
   21e54:	10800098 	cmpnei	r2,r2,2
   21e58:	10015c1e 	bne	r2,zero,223cc <sys_timer_isr+0x5f0>
    gain_calib = 0;
   21e5c:	d028d705 	stb	zero,-23716(gp)
    acc_calib  = 0;
   21e60:	d028d785 	stb	zero,-23714(gp)
    gain       = 0x7FF;
   21e64:	0081ffc4 	movi	r2,2047
   21e68:	d0a0030d 	sth	r2,-32756(gp)
    exposure   = 0x2000;
   21e6c:	00880004 	movi	r2,8192
   21e70:	d0a00415 	stw	r2,-32752(gp)

    OV8865SetGain(gain);
   21e74:	d0a0030b 	ldhu	r2,-32756(gp)
   21e78:	10bfffcc 	andi	r2,r2,65535
   21e7c:	1009883a 	mov	r4,r2
   21e80:	0023bac0 	call	23bac <OV8865SetGain>
    OV8865SetExposure(exposure);
   21e84:	d0a00417 	ldw	r2,-32752(gp)
   21e88:	1009883a 	mov	r4,r2
   21e8c:	0023acc0 	call	23acc <OV8865SetExposure>

    #ifdef VIEW_AUTO_GAIN
      printf("\nGain = %x\n", gain);
   21e90:	d0a0030b 	ldhu	r2,-32756(gp)
   21e94:	10bfffcc 	andi	r2,r2,65535
   21e98:	100b883a 	mov	r5,r2
   21e9c:	010000f4 	movhi	r4,3
   21ea0:	2110c904 	addi	r4,r4,17188
   21ea4:	0024edc0 	call	24edc <printf>
      printf("Exposure = %x\n", exposure);
   21ea8:	d0a00417 	ldw	r2,-32752(gp)
   21eac:	100b883a 	mov	r5,r2
   21eb0:	010000f4 	movhi	r4,3
   21eb4:	2110cc04 	addi	r4,r4,17200
   21eb8:	0024edc0 	call	24edc <printf>
    #endif
  }

  //////////////////////////////////////////////////////////////////////// - Record incoming data from image processor

  while ((IORD(EEE_IMGPROC_0_BASE,EEE_IMGPROC_STATUS)>>8) & 0xff) {    // Check if there is data in message buffer
   21ebc:	00014306 	br	223cc <sys_timer_isr+0x5f0>
    word      = IORD(EEE_IMGPROC_0_BASE,EEE_IMGPROC_MSG); 			       // Get next word from message buffer
   21ec0:	00800134 	movhi	r2,4
   21ec4:	10840104 	addi	r2,r2,4100
   21ec8:	10c00037 	ldwio	r3,0(r2)
   21ecc:	00800134 	movhi	r2,4
   21ed0:	10a3cd04 	addi	r2,r2,-28876
   21ed4:	10c00015 	stw	r3,0(r2)
    x_min     = (word>>11) & 0x7FF;
   21ed8:	00800134 	movhi	r2,4
   21edc:	10a3cd04 	addi	r2,r2,-28876
   21ee0:	10800017 	ldw	r2,0(r2)
   21ee4:	1005d2fa 	srai	r2,r2,11
   21ee8:	1081ffcc 	andi	r2,r2,2047
   21eec:	1007883a 	mov	r3,r2
   21ef0:	00800134 	movhi	r2,4
   21ef4:	10a3ba04 	addi	r2,r2,-28952
   21ef8:	10c0000d 	sth	r3,0(r2)
    x_max     =  word      & 0x7FF;
   21efc:	00800134 	movhi	r2,4
   21f00:	10a3cd04 	addi	r2,r2,-28876
   21f04:	10800017 	ldw	r2,0(r2)
   21f08:	1081ffcc 	andi	r2,r2,2047
   21f0c:	1007883a 	mov	r3,r2
   21f10:	00800134 	movhi	r2,4
   21f14:	10a3c904 	addi	r2,r2,-28892
   21f18:	10c0000d 	sth	r3,0(r2)
    filter_id = (word>>22) & 0x0FF;
   21f1c:	00800134 	movhi	r2,4
   21f20:	10a3cd04 	addi	r2,r2,-28876
   21f24:	10800017 	ldw	r2,0(r2)
   21f28:	1005d5ba 	srai	r2,r2,22
   21f2c:	1007883a 	mov	r3,r2
   21f30:	00800134 	movhi	r2,4
   21f34:	10a3c844 	addi	r2,r2,-28895
   21f38:	10c00005 	stb	r3,0(r2)

    //----------------------------------------------------------------- Record filter and ball data

    // Record filter data
    if(filter_id){
   21f3c:	00800134 	movhi	r2,4
   21f40:	10a3c844 	addi	r2,r2,-28895
   21f44:	10800003 	ldbu	r2,0(r2)
   21f48:	10803fcc 	andi	r2,r2,255
   21f4c:	10006826 	beq	r2,zero,220f0 <sys_timer_isr+0x314>
      if(filter_id=='D'){
   21f50:	00800134 	movhi	r2,4
   21f54:	10a3c844 	addi	r2,r2,-28895
   21f58:	10800003 	ldbu	r2,0(r2)
   21f5c:	10803fcc 	andi	r2,r2,255
   21f60:	10801118 	cmpnei	r2,r2,68
   21f64:	10001f1e 	bne	r2,zero,21fe4 <sys_timer_isr+0x208>
        if(word&0xC0000000){
   21f68:	00800134 	movhi	r2,4
   21f6c:	10a3cd04 	addi	r2,r2,-28876
   21f70:	10800017 	ldw	r2,0(r2)
   21f74:	10b0002c 	andhi	r2,r2,49152
   21f78:	10000d26 	beq	r2,zero,21fb0 <sys_timer_isr+0x1d4>
          ball_bounds[2] = x_min;
   21f7c:	00800134 	movhi	r2,4
   21f80:	10a3ba04 	addi	r2,r2,-28952
   21f84:	10c0000b 	ldhu	r3,0(r2)
   21f88:	00800134 	movhi	r2,4
   21f8c:	10a3b804 	addi	r2,r2,-28960
   21f90:	10c0010d 	sth	r3,4(r2)
          ball_bounds[3] = x_max;
   21f94:	00800134 	movhi	r2,4
   21f98:	10a3c904 	addi	r2,r2,-28892
   21f9c:	10c0000b 	ldhu	r3,0(r2)
   21fa0:	00800134 	movhi	r2,4
   21fa4:	10a3b804 	addi	r2,r2,-28960
   21fa8:	10c0018d 	sth	r3,6(r2)
   21fac:	00007406 	br	22180 <sys_timer_isr+0x3a4>
        }else{
          ball_bounds[0] = x_min;
   21fb0:	00800134 	movhi	r2,4
   21fb4:	10a3ba04 	addi	r2,r2,-28952
   21fb8:	10c0000b 	ldhu	r3,0(r2)
   21fbc:	00800134 	movhi	r2,4
   21fc0:	10a3b804 	addi	r2,r2,-28960
   21fc4:	10c0000d 	sth	r3,0(r2)
          ball_bounds[1] = x_max;
   21fc8:	00800134 	movhi	r2,4
   21fcc:	10a3c904 	addi	r2,r2,-28892
   21fd0:	10c0000b 	ldhu	r3,0(r2)
   21fd4:	00800134 	movhi	r2,4
   21fd8:	10a3b804 	addi	r2,r2,-28960
   21fdc:	10c0008d 	sth	r3,2(r2)
   21fe0:	00006706 	br	22180 <sys_timer_isr+0x3a4>
        }
      }else{
        if(word&0xC0000000){
   21fe4:	00800134 	movhi	r2,4
   21fe8:	10a3cd04 	addi	r2,r2,-28876
   21fec:	10800017 	ldw	r2,0(r2)
   21ff0:	10b0002c 	andhi	r2,r2,49152
   21ff4:	10001f26 	beq	r2,zero,22074 <sys_timer_isr+0x298>
          filter_y_min[filter_index(filter_id)] = x_min;
   21ff8:	00800134 	movhi	r2,4
   21ffc:	10a3c844 	addi	r2,r2,-28895
   22000:	10800003 	ldbu	r2,0(r2)
   22004:	10803fcc 	andi	r2,r2,255
   22008:	1009883a 	mov	r4,r2
   2200c:	0021a200 	call	21a20 <filter_index>
   22010:	10c03fcc 	andi	r3,r2,255
   22014:	00800134 	movhi	r2,4
   22018:	10a3ba04 	addi	r2,r2,-28952
   2201c:	1100000b 	ldhu	r4,0(r2)
   22020:	00800134 	movhi	r2,4
   22024:	10a3fd04 	addi	r2,r2,-28684
   22028:	18c7883a 	add	r3,r3,r3
   2202c:	10c5883a 	add	r2,r2,r3
   22030:	1100000d 	sth	r4,0(r2)
          filter_y_max[filter_index(filter_id)] = x_max;
   22034:	00800134 	movhi	r2,4
   22038:	10a3c844 	addi	r2,r2,-28895
   2203c:	10800003 	ldbu	r2,0(r2)
   22040:	10803fcc 	andi	r2,r2,255
   22044:	1009883a 	mov	r4,r2
   22048:	0021a200 	call	21a20 <filter_index>
   2204c:	10c03fcc 	andi	r3,r2,255
   22050:	00800134 	movhi	r2,4
   22054:	10a3c904 	addi	r2,r2,-28892
   22058:	1100000b 	ldhu	r4,0(r2)
   2205c:	00800134 	movhi	r2,4
   22060:	10a3ff84 	addi	r2,r2,-28674
   22064:	18c7883a 	add	r3,r3,r3
   22068:	10c5883a 	add	r2,r2,r3
   2206c:	1100000d 	sth	r4,0(r2)
   22070:	00004306 	br	22180 <sys_timer_isr+0x3a4>
        }else{
          filter_x_min[filter_index(filter_id)] = x_min;
   22074:	00800134 	movhi	r2,4
   22078:	10a3c844 	addi	r2,r2,-28895
   2207c:	10800003 	ldbu	r2,0(r2)
   22080:	10803fcc 	andi	r2,r2,255
   22084:	1009883a 	mov	r4,r2
   22088:	0021a200 	call	21a20 <filter_index>
   2208c:	10c03fcc 	andi	r3,r2,255
   22090:	00800134 	movhi	r2,4
   22094:	10a3ba04 	addi	r2,r2,-28952
   22098:	1100000b 	ldhu	r4,0(r2)
   2209c:	00800134 	movhi	r2,4
   220a0:	10a3ef04 	addi	r2,r2,-28740
   220a4:	18c7883a 	add	r3,r3,r3
   220a8:	10c5883a 	add	r2,r2,r3
   220ac:	1100000d 	sth	r4,0(r2)
          filter_x_max[filter_index(filter_id)] = x_max;
   220b0:	00800134 	movhi	r2,4
   220b4:	10a3c844 	addi	r2,r2,-28895
   220b8:	10800003 	ldbu	r2,0(r2)
   220bc:	10803fcc 	andi	r2,r2,255
   220c0:	1009883a 	mov	r4,r2
   220c4:	0021a200 	call	21a20 <filter_index>
   220c8:	10c03fcc 	andi	r3,r2,255
   220cc:	00800134 	movhi	r2,4
   220d0:	10a3c904 	addi	r2,r2,-28892
   220d4:	1100000b 	ldhu	r4,0(r2)
   220d8:	00800134 	movhi	r2,4
   220dc:	10a3f184 	addi	r2,r2,-28730
   220e0:	18c7883a 	add	r3,r3,r3
   220e4:	10c5883a 	add	r2,r2,r3
   220e8:	1100000d 	sth	r4,0(r2)
   220ec:	00002406 	br	22180 <sys_timer_isr+0x3a4>
        }
      }

    // Record ball data
    }else if(((x_max-x_min)>=0x20)&&(ball_x_min.used<8)&&(gain_calib==CALIBRATION_MAX)){
   220f0:	00800134 	movhi	r2,4
   220f4:	10a3c904 	addi	r2,r2,-28892
   220f8:	1080000b 	ldhu	r2,0(r2)
   220fc:	10ffffcc 	andi	r3,r2,65535
   22100:	00800134 	movhi	r2,4
   22104:	10a3ba04 	addi	r2,r2,-28952
   22108:	1080000b 	ldhu	r2,0(r2)
   2210c:	10bfffcc 	andi	r2,r2,65535
   22110:	1885c83a 	sub	r2,r3,r2
   22114:	10800810 	cmplti	r2,r2,32
   22118:	1000191e 	bne	r2,zero,22180 <sys_timer_isr+0x3a4>
   2211c:	00800134 	movhi	r2,4
   22120:	10a3f704 	addi	r2,r2,-28708
   22124:	10800117 	ldw	r2,4(r2)
   22128:	10800228 	cmpgeui	r2,r2,8
   2212c:	1000141e 	bne	r2,zero,22180 <sys_timer_isr+0x3a4>
   22130:	d0a8d703 	ldbu	r2,-23716(gp)
   22134:	10803fcc 	andi	r2,r2,255
   22138:	10800218 	cmpnei	r2,r2,8
   2213c:	1000101e 	bne	r2,zero,22180 <sys_timer_isr+0x3a4>
      appendArray_u16(&ball_x_min, x_min);
   22140:	00800134 	movhi	r2,4
   22144:	10a3ba04 	addi	r2,r2,-28952
   22148:	1080000b 	ldhu	r2,0(r2)
   2214c:	10bfffcc 	andi	r2,r2,65535
   22150:	100b883a 	mov	r5,r2
   22154:	01000134 	movhi	r4,4
   22158:	2123f704 	addi	r4,r4,-28708
   2215c:	002190c0 	call	2190c <appendArray_u16>
      appendArray_u16(&ball_x_max, x_max);
   22160:	00800134 	movhi	r2,4
   22164:	10a3c904 	addi	r2,r2,-28892
   22168:	1080000b 	ldhu	r2,0(r2)
   2216c:	10bfffcc 	andi	r2,r2,65535
   22170:	100b883a 	mov	r5,r2
   22174:	01000134 	movhi	r4,4
   22178:	2123e604 	addi	r4,r4,-28776
   2217c:	002190c0 	call	2190c <appendArray_u16>
    }

    //----------------------------------------------------------------- Calibrate or process data when a full batch has arrived

    if((word&0xC0000000)&&(filter_id == 'D')){
   22180:	00800134 	movhi	r2,4
   22184:	10a3cd04 	addi	r2,r2,-28876
   22188:	10800017 	ldw	r2,0(r2)
   2218c:	10b0002c 	andhi	r2,r2,49152
   22190:	10004b26 	beq	r2,zero,222c0 <sys_timer_isr+0x4e4>
   22194:	00800134 	movhi	r2,4
   22198:	10a3c844 	addi	r2,r2,-28895
   2219c:	10800003 	ldbu	r2,0(r2)
   221a0:	10803fcc 	andi	r2,r2,255
   221a4:	10801118 	cmpnei	r2,r2,68
   221a8:	1000451e 	bne	r2,zero,222c0 <sys_timer_isr+0x4e4>

      if(gain_calib<CALIBRATION_MAX){                        // Do calibration if not calibrated
   221ac:	d0a8d703 	ldbu	r2,-23716(gp)
   221b0:	10803fcc 	andi	r2,r2,255
   221b4:	10800228 	cmpgeui	r2,r2,8
   221b8:	1000371e 	bne	r2,zero,22298 <sys_timer_isr+0x4bc>

        if(!balls_detected){ gain_calib++; }
   221bc:	00800134 	movhi	r2,4
   221c0:	10a3c604 	addi	r2,r2,-28904
   221c4:	10800003 	ldbu	r2,0(r2)
   221c8:	10803fcc 	andi	r2,r2,255
   221cc:	1000031e 	bne	r2,zero,221dc <sys_timer_isr+0x400>
   221d0:	d0a8d703 	ldbu	r2,-23716(gp)
   221d4:	10800044 	addi	r2,r2,1
   221d8:	d0a8d705 	stb	r2,-23716(gp)

        if((balls_detected||(gain_calib==CALIBRATION_MAX)) && (exposure>EXPOSURE_STEP)){
   221dc:	00800134 	movhi	r2,4
   221e0:	10a3c604 	addi	r2,r2,-28904
   221e4:	10800003 	ldbu	r2,0(r2)
   221e8:	10803fcc 	andi	r2,r2,255
   221ec:	1000041e 	bne	r2,zero,22200 <sys_timer_isr+0x424>
   221f0:	d0a8d703 	ldbu	r2,-23716(gp)
   221f4:	10803fcc 	andi	r2,r2,255
   221f8:	10800218 	cmpnei	r2,r2,8
   221fc:	1000151e 	bne	r2,zero,22254 <sys_timer_isr+0x478>
   22200:	d0a00417 	ldw	r2,-32752(gp)
   22204:	10804070 	cmpltui	r2,r2,257
   22208:	1000121e 	bne	r2,zero,22254 <sys_timer_isr+0x478>
          if(gain>GAIN_STEP){
   2220c:	d0a0030b 	ldhu	r2,-32756(gp)
   22210:	10bfffcc 	andi	r2,r2,65535
   22214:	10801070 	cmpltui	r2,r2,65
   22218:	1000081e 	bne	r2,zero,2223c <sys_timer_isr+0x460>
            gain -= GAIN_STEP;
   2221c:	d0a0030b 	ldhu	r2,-32756(gp)
   22220:	10bff004 	addi	r2,r2,-64
   22224:	d0a0030d 	sth	r2,-32756(gp)
            OV8865SetGain(gain);
   22228:	d0a0030b 	ldhu	r2,-32756(gp)
   2222c:	10bfffcc 	andi	r2,r2,65535
   22230:	1009883a 	mov	r4,r2
   22234:	0023bac0 	call	23bac <OV8865SetGain>
   22238:	00000606 	br	22254 <sys_timer_isr+0x478>
          }else{
            exposure -= EXPOSURE_STEP;
   2223c:	d0a00417 	ldw	r2,-32752(gp)
   22240:	10bfc004 	addi	r2,r2,-256
   22244:	d0a00415 	stw	r2,-32752(gp)
            OV8865SetExposure(exposure);
   22248:	d0a00417 	ldw	r2,-32752(gp)
   2224c:	1009883a 	mov	r4,r2
   22250:	0023acc0 	call	23acc <OV8865SetExposure>
          }
        }

        #ifdef VIEW_AUTO_GAIN
          printf("G = %03x   ", gain);
   22254:	d0a0030b 	ldhu	r2,-32756(gp)
   22258:	10bfffcc 	andi	r2,r2,65535
   2225c:	100b883a 	mov	r5,r2
   22260:	010000f4 	movhi	r4,3
   22264:	2110d004 	addi	r4,r4,17216
   22268:	0024edc0 	call	24edc <printf>
          printf("E = %04x   ", exposure);
   2226c:	d0a00417 	ldw	r2,-32752(gp)
   22270:	100b883a 	mov	r5,r2
   22274:	010000f4 	movhi	r4,3
   22278:	2110d304 	addi	r4,r4,17228
   2227c:	0024edc0 	call	24edc <printf>
          printf("C = %02d\n", gain_calib);
   22280:	d0a8d703 	ldbu	r2,-23716(gp)
   22284:	10803fcc 	andi	r2,r2,255
   22288:	100b883a 	mov	r5,r2
   2228c:	010000f4 	movhi	r4,3
   22290:	2110d604 	addi	r4,r4,17240
   22294:	0024edc0 	call	24edc <printf>
        #endif
      }

      if(gain_calib >= CALIBRATION_MAX){ process = 1; }      // Start processing the data if calibrated
   22298:	d0a8d703 	ldbu	r2,-23716(gp)
   2229c:	10803fcc 	andi	r2,r2,255
   222a0:	10800230 	cmpltui	r2,r2,8
   222a4:	1000031e 	bne	r2,zero,222b4 <sys_timer_isr+0x4d8>
   222a8:	00800044 	movi	r2,1
   222ac:	d0a8d745 	stb	r2,-23715(gp)
   222b0:	00000306 	br	222c0 <sys_timer_isr+0x4e4>
      else{ balls_detected = 0; }
   222b4:	00800134 	movhi	r2,4
   222b8:	10a3c604 	addi	r2,r2,-28904
   222bc:	10000005 	stb	zero,0(r2)
    }

    balls_detected |= (!filter_id)&&((x_max-x_min)>20);
   222c0:	00800134 	movhi	r2,4
   222c4:	10a3c844 	addi	r2,r2,-28895
   222c8:	10800003 	ldbu	r2,0(r2)
   222cc:	10803fcc 	andi	r2,r2,255
   222d0:	10000d1e 	bne	r2,zero,22308 <sys_timer_isr+0x52c>
   222d4:	00800134 	movhi	r2,4
   222d8:	10a3c904 	addi	r2,r2,-28892
   222dc:	1080000b 	ldhu	r2,0(r2)
   222e0:	10ffffcc 	andi	r3,r2,65535
   222e4:	00800134 	movhi	r2,4
   222e8:	10a3ba04 	addi	r2,r2,-28952
   222ec:	1080000b 	ldhu	r2,0(r2)
   222f0:	10bfffcc 	andi	r2,r2,65535
   222f4:	1885c83a 	sub	r2,r3,r2
   222f8:	10800550 	cmplti	r2,r2,21
   222fc:	1000021e 	bne	r2,zero,22308 <sys_timer_isr+0x52c>
   22300:	00800044 	movi	r2,1
   22304:	00000106 	br	2230c <sys_timer_isr+0x530>
   22308:	0005883a 	mov	r2,zero
   2230c:	1007883a 	mov	r3,r2
   22310:	00800134 	movhi	r2,4
   22314:	10a3c604 	addi	r2,r2,-28904
   22318:	10800003 	ldbu	r2,0(r2)
   2231c:	1884b03a 	or	r2,r3,r2
   22320:	1007883a 	mov	r3,r2
   22324:	00800134 	movhi	r2,4
   22328:	10a3c604 	addi	r2,r2,-28904
   2232c:	10c00005 	stb	r3,0(r2)
    balls_detected |= ball_bounds[3]>=448;
   22330:	00800134 	movhi	r2,4
   22334:	10a3b804 	addi	r2,r2,-28960
   22338:	1080018b 	ldhu	r2,6(r2)
   2233c:	10bfffcc 	andi	r2,r2,65535
   22340:	10807028 	cmpgeui	r2,r2,448
   22344:	1007883a 	mov	r3,r2
   22348:	00800134 	movhi	r2,4
   2234c:	10a3c604 	addi	r2,r2,-28904
   22350:	10800003 	ldbu	r2,0(r2)
   22354:	1884b03a 	or	r2,r3,r2
   22358:	1007883a 	mov	r3,r2
   2235c:	00800134 	movhi	r2,4
   22360:	10a3c604 	addi	r2,r2,-28904
   22364:	10c00005 	stb	r3,0(r2)
    for(alt_u8 i=0; i<5; i++){
   22368:	e03ffd05 	stb	zero,-12(fp)
   2236c:	00001406 	br	223c0 <sys_timer_isr+0x5e4>
      if(!(filter_x_min[i]>= 472)){ balls_detected |= 1; }
   22370:	e0fffd03 	ldbu	r3,-12(fp)
   22374:	00800134 	movhi	r2,4
   22378:	10a3ef04 	addi	r2,r2,-28740
   2237c:	18c7883a 	add	r3,r3,r3
   22380:	10c5883a 	add	r2,r2,r3
   22384:	1080000b 	ldhu	r2,0(r2)
   22388:	10bfffcc 	andi	r2,r2,65535
   2238c:	10807628 	cmpgeui	r2,r2,472
   22390:	1000081e 	bne	r2,zero,223b4 <sys_timer_isr+0x5d8>
   22394:	00800134 	movhi	r2,4
   22398:	10a3c604 	addi	r2,r2,-28904
   2239c:	10800003 	ldbu	r2,0(r2)
   223a0:	10800054 	ori	r2,r2,1
   223a4:	1007883a 	mov	r3,r2
   223a8:	00800134 	movhi	r2,4
   223ac:	10a3c604 	addi	r2,r2,-28904
   223b0:	10c00005 	stb	r3,0(r2)
      else{ balls_detected = 0; }
    }

    balls_detected |= (!filter_id)&&((x_max-x_min)>20);
    balls_detected |= ball_bounds[3]>=448;
    for(alt_u8 i=0; i<5; i++){
   223b4:	e0bffd03 	ldbu	r2,-12(fp)
   223b8:	10800044 	addi	r2,r2,1
   223bc:	e0bffd05 	stb	r2,-12(fp)
   223c0:	e0bffd03 	ldbu	r2,-12(fp)
   223c4:	10800170 	cmpltui	r2,r2,5
   223c8:	103fe91e 	bne	r2,zero,22370 <__alt_data_end+0xfffe2f70>
    #endif
  }

  //////////////////////////////////////////////////////////////////////// - Record incoming data from image processor

  while ((IORD(EEE_IMGPROC_0_BASE,EEE_IMGPROC_STATUS)>>8) & 0xff) {    // Check if there is data in message buffer
   223cc:	00800134 	movhi	r2,4
   223d0:	10840004 	addi	r2,r2,4096
   223d4:	10800037 	ldwio	r2,0(r2)
   223d8:	1005d23a 	srai	r2,r2,8
   223dc:	10803fcc 	andi	r2,r2,255
   223e0:	103eb71e 	bne	r2,zero,21ec0 <__alt_data_end+0xfffe2ac0>
    }
  }

  //////////////////////////////////////////////////////////////////////// - Process a full batch of data

  if(process){
   223e4:	d0a8d743 	ldbu	r2,-23715(gp)
   223e8:	10803fcc 	andi	r2,r2,255
   223ec:	10037926 	beq	r2,zero,231d4 <sys_timer_isr+0x13f8>
    ball_colours.used   = 0;
   223f0:	00800134 	movhi	r2,4
   223f4:	10a3fa04 	addi	r2,r2,-28696
   223f8:	10000115 	stw	zero,4(r2)
    ball_distances.used = 0;
   223fc:	00800134 	movhi	r2,4
   22400:	10a3e904 	addi	r2,r2,-28764
   22404:	10000115 	stw	zero,4(r2)
    ball_angles.used    = 0;
   22408:	00800134 	movhi	r2,4
   2240c:	10a3ec04 	addi	r2,r2,-28752
   22410:	10000115 	stw	zero,4(r2)
    closest_distance    = 0xFF;
   22414:	00bfffc4 	movi	r2,-1
   22418:	d0a00505 	stb	r2,-32748(gp)
    new_data            = 0;
   2241c:	00800134 	movhi	r2,4
   22420:	10a3bc04 	addi	r2,r2,-28944
   22424:	10000005 	stb	zero,0(r2)
      printf("Counted %d balls.\n\n", ball_x_min.used);                                                   // Ball count
    #endif

    //----------------------------------------------------------------- Iterate over individual balls detected and process data

    for(alt_u8 i=0; i<(ball_x_min.used); i++){
   22428:	e03ffd45 	stb	zero,-11(fp)
   2242c:	00012806 	br	228d0 <sys_timer_isr+0xaf4>
      diameter = ball_x_max.data[i] - ball_x_min.data[i];                                            // Diameter of ball in pixels
   22430:	00800134 	movhi	r2,4
   22434:	10a3e604 	addi	r2,r2,-28776
   22438:	10c00017 	ldw	r3,0(r2)
   2243c:	e0bffd43 	ldbu	r2,-11(fp)
   22440:	1085883a 	add	r2,r2,r2
   22444:	1885883a 	add	r2,r3,r2
   22448:	10c0000b 	ldhu	r3,0(r2)
   2244c:	00800134 	movhi	r2,4
   22450:	10a3f704 	addi	r2,r2,-28708
   22454:	11000017 	ldw	r4,0(r2)
   22458:	e0bffd43 	ldbu	r2,-11(fp)
   2245c:	1085883a 	add	r2,r2,r2
   22460:	2085883a 	add	r2,r4,r2
   22464:	1080000b 	ldhu	r2,0(r2)
   22468:	1885c83a 	sub	r2,r3,r2
   2246c:	1007883a 	mov	r3,r2
   22470:	00800134 	movhi	r2,4
   22474:	10a3bf04 	addi	r2,r2,-28932
   22478:	10c0000d 	sth	r3,0(r2)
      distance = 2560/diameter;                                                                           // 2) Distance to each ball
   2247c:	00800134 	movhi	r2,4
   22480:	10a3bf04 	addi	r2,r2,-28932
   22484:	1080000b 	ldhu	r2,0(r2)
   22488:	10bfffcc 	andi	r2,r2,65535
   2248c:	100b883a 	mov	r5,r2
   22490:	01028004 	movi	r4,2560
   22494:	002439c0 	call	2439c <__divsi3>
   22498:	1007883a 	mov	r3,r2
   2249c:	00800134 	movhi	r2,4
   224a0:	10a3c104 	addi	r2,r2,-28924
   224a4:	10c0000d 	sth	r3,0(r2)

      mid_pos  = (ball_x_min.data[i]>>1) + (ball_x_max.data[i]>>1);                                  // Position of the middle point of the ball
   224a8:	00800134 	movhi	r2,4
   224ac:	10a3f704 	addi	r2,r2,-28708
   224b0:	10c00017 	ldw	r3,0(r2)
   224b4:	e0bffd43 	ldbu	r2,-11(fp)
   224b8:	1085883a 	add	r2,r2,r2
   224bc:	1885883a 	add	r2,r3,r2
   224c0:	1080000b 	ldhu	r2,0(r2)
   224c4:	10bfffcc 	andi	r2,r2,65535
   224c8:	1004d07a 	srli	r2,r2,1
   224cc:	1009883a 	mov	r4,r2
   224d0:	00800134 	movhi	r2,4
   224d4:	10a3e604 	addi	r2,r2,-28776
   224d8:	10c00017 	ldw	r3,0(r2)
   224dc:	e0bffd43 	ldbu	r2,-11(fp)
   224e0:	1085883a 	add	r2,r2,r2
   224e4:	1885883a 	add	r2,r3,r2
   224e8:	1080000b 	ldhu	r2,0(r2)
   224ec:	10bfffcc 	andi	r2,r2,65535
   224f0:	1004d07a 	srli	r2,r2,1
   224f4:	2085883a 	add	r2,r4,r2
   224f8:	1007883a 	mov	r3,r2
   224fc:	00800134 	movhi	r2,4
   22500:	10a3c304 	addi	r2,r2,-28916
   22504:	10c0000d 	sth	r3,0(r2)
      if(mid_pos>320){ angle = ((((mid_pos-320)<<7)/diameter)>>5); }                                      // 3) Angle to each ball
   22508:	00800134 	movhi	r2,4
   2250c:	10a3c304 	addi	r2,r2,-28916
   22510:	1080000b 	ldhu	r2,0(r2)
   22514:	10bfffcc 	andi	r2,r2,65535
   22518:	10805070 	cmpltui	r2,r2,321
   2251c:	1000131e 	bne	r2,zero,2256c <sys_timer_isr+0x790>
   22520:	00800134 	movhi	r2,4
   22524:	10a3c304 	addi	r2,r2,-28916
   22528:	1080000b 	ldhu	r2,0(r2)
   2252c:	10bfffcc 	andi	r2,r2,65535
   22530:	10bfb004 	addi	r2,r2,-320
   22534:	100691fa 	slli	r3,r2,7
   22538:	00800134 	movhi	r2,4
   2253c:	10a3bf04 	addi	r2,r2,-28932
   22540:	1080000b 	ldhu	r2,0(r2)
   22544:	10bfffcc 	andi	r2,r2,65535
   22548:	100b883a 	mov	r5,r2
   2254c:	1809883a 	mov	r4,r3
   22550:	002439c0 	call	2439c <__divsi3>
   22554:	1005d17a 	srai	r2,r2,5
   22558:	1007883a 	mov	r3,r2
   2255c:	00800134 	movhi	r2,4
   22560:	10a3c384 	addi	r2,r2,-28914
   22564:	10c0000d 	sth	r3,0(r2)
   22568:	00001406 	br	225bc <sys_timer_isr+0x7e0>
      else           { angle = -((((320-mid_pos)<<7)/diameter)>>5); }
   2256c:	00800134 	movhi	r2,4
   22570:	10a3c304 	addi	r2,r2,-28916
   22574:	1080000b 	ldhu	r2,0(r2)
   22578:	10bfffcc 	andi	r2,r2,65535
   2257c:	00c05004 	movi	r3,320
   22580:	1885c83a 	sub	r2,r3,r2
   22584:	100691fa 	slli	r3,r2,7
   22588:	00800134 	movhi	r2,4
   2258c:	10a3bf04 	addi	r2,r2,-28932
   22590:	1080000b 	ldhu	r2,0(r2)
   22594:	10bfffcc 	andi	r2,r2,65535
   22598:	100b883a 	mov	r5,r2
   2259c:	1809883a 	mov	r4,r3
   225a0:	002439c0 	call	2439c <__divsi3>
   225a4:	1005d17a 	srai	r2,r2,5
   225a8:	0085c83a 	sub	r2,zero,r2
   225ac:	1007883a 	mov	r3,r2
   225b0:	00800134 	movhi	r2,4
   225b4:	10a3c384 	addi	r2,r2,-28914
   225b8:	10c0000d 	sth	r3,0(r2)

      for(alt_u8 j=4; j<255; j--){                                                                        // 1) Colour of ball
   225bc:	00800104 	movi	r2,4
   225c0:	e0bffd85 	stb	r2,-10(fp)
   225c4:	00003106 	br	2268c <sys_timer_isr+0x8b0>
        if(!( (filter_x_min[j] > ball_x_max.data[i]) || (filter_x_max[j] < ball_x_min.data[i]) )){
   225c8:	e0fffd83 	ldbu	r3,-10(fp)
   225cc:	00800134 	movhi	r2,4
   225d0:	10a3ef04 	addi	r2,r2,-28740
   225d4:	18c7883a 	add	r3,r3,r3
   225d8:	10c5883a 	add	r2,r2,r3
   225dc:	1100000b 	ldhu	r4,0(r2)
   225e0:	00800134 	movhi	r2,4
   225e4:	10a3e604 	addi	r2,r2,-28776
   225e8:	10c00017 	ldw	r3,0(r2)
   225ec:	e0bffd43 	ldbu	r2,-11(fp)
   225f0:	1085883a 	add	r2,r2,r2
   225f4:	1885883a 	add	r2,r3,r2
   225f8:	10c0000b 	ldhu	r3,0(r2)
   225fc:	20bfffcc 	andi	r2,r4,65535
   22600:	18ffffcc 	andi	r3,r3,65535
   22604:	18801836 	bltu	r3,r2,22668 <sys_timer_isr+0x88c>
   22608:	e0fffd83 	ldbu	r3,-10(fp)
   2260c:	00800134 	movhi	r2,4
   22610:	10a3f184 	addi	r2,r2,-28730
   22614:	18c7883a 	add	r3,r3,r3
   22618:	10c5883a 	add	r2,r2,r3
   2261c:	1100000b 	ldhu	r4,0(r2)
   22620:	00800134 	movhi	r2,4
   22624:	10a3f704 	addi	r2,r2,-28708
   22628:	10c00017 	ldw	r3,0(r2)
   2262c:	e0bffd43 	ldbu	r2,-11(fp)
   22630:	1085883a 	add	r2,r2,r2
   22634:	1885883a 	add	r2,r3,r2
   22638:	1080000b 	ldhu	r2,0(r2)
   2263c:	20ffffcc 	andi	r3,r4,65535
   22640:	10bfffcc 	andi	r2,r2,65535
   22644:	18800836 	bltu	r3,r2,22668 <sys_timer_isr+0x88c>
          colour = get_filter_id(j);
   22648:	e0bffd83 	ldbu	r2,-10(fp)
   2264c:	1009883a 	mov	r4,r2
   22650:	0021af80 	call	21af8 <get_filter_id>
   22654:	10c03fcc 	andi	r3,r2,255
   22658:	00800134 	movhi	r2,4
   2265c:	10a3b604 	addi	r2,r2,-28968
   22660:	10c0000d 	sth	r3,0(r2)
          break;
   22664:	00000c06 	br	22698 <sys_timer_isr+0x8bc>
        }
        if(!j){ colour = 'U'; }
   22668:	e0bffd83 	ldbu	r2,-10(fp)
   2266c:	1000041e 	bne	r2,zero,22680 <sys_timer_isr+0x8a4>
   22670:	00800134 	movhi	r2,4
   22674:	10a3b604 	addi	r2,r2,-28968
   22678:	00c01544 	movi	r3,85
   2267c:	10c0000d 	sth	r3,0(r2)

      mid_pos  = (ball_x_min.data[i]>>1) + (ball_x_max.data[i]>>1);                                  // Position of the middle point of the ball
      if(mid_pos>320){ angle = ((((mid_pos-320)<<7)/diameter)>>5); }                                      // 3) Angle to each ball
      else           { angle = -((((320-mid_pos)<<7)/diameter)>>5); }

      for(alt_u8 j=4; j<255; j--){                                                                        // 1) Colour of ball
   22680:	e0bffd83 	ldbu	r2,-10(fp)
   22684:	10bfffc4 	addi	r2,r2,-1
   22688:	e0bffd85 	stb	r2,-10(fp)
   2268c:	e0bffd83 	ldbu	r2,-10(fp)
   22690:	10803fd8 	cmpnei	r2,r2,255
   22694:	103fcc1e 	bne	r2,zero,225c8 <__alt_data_end+0xfffe31c8>
          break;
        }
        if(!j){ colour = 'U'; }
      }

      touching_edge = ((ball_x_min.data[i]<=8)||(ball_x_max.data[i]>=632)||(ball_bounds[3]>=472));   // Is ball touching an edge of the frame
   22698:	00800134 	movhi	r2,4
   2269c:	10a3f704 	addi	r2,r2,-28708
   226a0:	10c00017 	ldw	r3,0(r2)
   226a4:	e0bffd43 	ldbu	r2,-11(fp)
   226a8:	1085883a 	add	r2,r2,r2
   226ac:	1885883a 	add	r2,r3,r2
   226b0:	1080000b 	ldhu	r2,0(r2)
   226b4:	10bfffcc 	andi	r2,r2,65535
   226b8:	10800270 	cmpltui	r2,r2,9
   226bc:	1000101e 	bne	r2,zero,22700 <sys_timer_isr+0x924>
   226c0:	00800134 	movhi	r2,4
   226c4:	10a3e604 	addi	r2,r2,-28776
   226c8:	10c00017 	ldw	r3,0(r2)
   226cc:	e0bffd43 	ldbu	r2,-11(fp)
   226d0:	1085883a 	add	r2,r2,r2
   226d4:	1885883a 	add	r2,r3,r2
   226d8:	1080000b 	ldhu	r2,0(r2)
   226dc:	10bfffcc 	andi	r2,r2,65535
   226e0:	10809e28 	cmpgeui	r2,r2,632
   226e4:	1000061e 	bne	r2,zero,22700 <sys_timer_isr+0x924>
   226e8:	00800134 	movhi	r2,4
   226ec:	10a3b804 	addi	r2,r2,-28960
   226f0:	1080018b 	ldhu	r2,6(r2)
   226f4:	10bfffcc 	andi	r2,r2,65535
   226f8:	10807630 	cmpltui	r2,r2,472
   226fc:	1000021e 	bne	r2,zero,22708 <sys_timer_isr+0x92c>
   22700:	00800044 	movi	r2,1
   22704:	00000106 	br	2270c <sys_timer_isr+0x930>
   22708:	0005883a 	mov	r2,zero
   2270c:	1007883a 	mov	r3,r2
   22710:	00800134 	movhi	r2,4
   22714:	10a3c484 	addi	r2,r2,-28910
   22718:	10c0000d 	sth	r3,0(r2)

      if(distance < closest_distance){                                                               // Records index and distance to closest ball
   2271c:	d0a00503 	ldbu	r2,-32748(gp)
   22720:	11003fcc 	andi	r4,r2,255
   22724:	00800134 	movhi	r2,4
   22728:	10a3c104 	addi	r2,r2,-28924
   2272c:	10c0000b 	ldhu	r3,0(r2)
   22730:	20bfffcc 	andi	r2,r4,65535
   22734:	18ffffcc 	andi	r3,r3,65535
   22738:	1880122e 	bgeu	r3,r2,22784 <sys_timer_isr+0x9a8>
        closest_distance = distance;
   2273c:	00800134 	movhi	r2,4
   22740:	10a3c104 	addi	r2,r2,-28924
   22744:	1080000b 	ldhu	r2,0(r2)
   22748:	d0a00505 	stb	r2,-32748(gp)
        if(!touching_edge){ closest_index = i; }
   2274c:	00800134 	movhi	r2,4
   22750:	10a3c484 	addi	r2,r2,-28910
   22754:	1080000b 	ldhu	r2,0(r2)
   22758:	10bfffcc 	andi	r2,r2,65535
   2275c:	1000051e 	bne	r2,zero,22774 <sys_timer_isr+0x998>
   22760:	00800134 	movhi	r2,4
   22764:	10a3c404 	addi	r2,r2,-28912
   22768:	e0fffd43 	ldbu	r3,-11(fp)
   2276c:	10c00005 	stb	r3,0(r2)
   22770:	00000406 	br	22784 <sys_timer_isr+0x9a8>
        else              { closest_index = 0xFF; }
   22774:	00800134 	movhi	r2,4
   22778:	10a3c404 	addi	r2,r2,-28912
   2277c:	00ffffc4 	movi	r3,-1
   22780:	10c00005 	stb	r3,0(r2)
      }

      if(!touching_edge){                                                                            // Record data if ball is not toughing the edge
   22784:	00800134 	movhi	r2,4
   22788:	10a3c484 	addi	r2,r2,-28910
   2278c:	1080000b 	ldhu	r2,0(r2)
   22790:	10bfffcc 	andi	r2,r2,65535
   22794:	10004b1e 	bne	r2,zero,228c4 <sys_timer_isr+0xae8>

        if(ball_sent.used==0){ new_data++; }               // If ball has not been seen before, new data found
   22798:	00800134 	movhi	r2,4
   2279c:	10a3f404 	addi	r2,r2,-28720
   227a0:	10800117 	ldw	r2,4(r2)
   227a4:	1000081e 	bne	r2,zero,227c8 <sys_timer_isr+0x9ec>
   227a8:	00800134 	movhi	r2,4
   227ac:	10a3bc04 	addi	r2,r2,-28944
   227b0:	10800003 	ldbu	r2,0(r2)
   227b4:	10800044 	addi	r2,r2,1
   227b8:	1007883a 	mov	r3,r2
   227bc:	00800134 	movhi	r2,4
   227c0:	10a3bc04 	addi	r2,r2,-28944
   227c4:	10c00005 	stb	r3,0(r2)
        for(alt_u8 j=0; j<(ball_sent.used); j++){
   227c8:	e03ffdc5 	stb	zero,-9(fp)
   227cc:	00001e06 	br	22848 <sys_timer_isr+0xa6c>
          if(ball_sent.data[j]==colour){ break; }
   227d0:	00800134 	movhi	r2,4
   227d4:	10a3f404 	addi	r2,r2,-28720
   227d8:	10c00017 	ldw	r3,0(r2)
   227dc:	e0bffdc3 	ldbu	r2,-9(fp)
   227e0:	1885883a 	add	r2,r3,r2
   227e4:	10800003 	ldbu	r2,0(r2)
   227e8:	10c03fcc 	andi	r3,r2,255
   227ec:	00800134 	movhi	r2,4
   227f0:	10a3b604 	addi	r2,r2,-28968
   227f4:	1080000b 	ldhu	r2,0(r2)
   227f8:	18ffffcc 	andi	r3,r3,65535
   227fc:	10bfffcc 	andi	r2,r2,65535
   22800:	18801726 	beq	r3,r2,22860 <sys_timer_isr+0xa84>
          if(j==(ball_sent.used-1)){ new_data++; }
   22804:	e0fffdc3 	ldbu	r3,-9(fp)
   22808:	00800134 	movhi	r2,4
   2280c:	10a3f404 	addi	r2,r2,-28720
   22810:	10800117 	ldw	r2,4(r2)
   22814:	10bfffc4 	addi	r2,r2,-1
   22818:	1880081e 	bne	r3,r2,2283c <sys_timer_isr+0xa60>
   2281c:	00800134 	movhi	r2,4
   22820:	10a3bc04 	addi	r2,r2,-28944
   22824:	10800003 	ldbu	r2,0(r2)
   22828:	10800044 	addi	r2,r2,1
   2282c:	1007883a 	mov	r3,r2
   22830:	00800134 	movhi	r2,4
   22834:	10a3bc04 	addi	r2,r2,-28944
   22838:	10c00005 	stb	r3,0(r2)
      }

      if(!touching_edge){                                                                            // Record data if ball is not toughing the edge

        if(ball_sent.used==0){ new_data++; }               // If ball has not been seen before, new data found
        for(alt_u8 j=0; j<(ball_sent.used); j++){
   2283c:	e0bffdc3 	ldbu	r2,-9(fp)
   22840:	10800044 	addi	r2,r2,1
   22844:	e0bffdc5 	stb	r2,-9(fp)
   22848:	e0fffdc3 	ldbu	r3,-9(fp)
   2284c:	00800134 	movhi	r2,4
   22850:	10a3f404 	addi	r2,r2,-28720
   22854:	10800117 	ldw	r2,4(r2)
   22858:	18bfdd36 	bltu	r3,r2,227d0 <__alt_data_end+0xfffe33d0>
   2285c:	00000106 	br	22864 <sys_timer_isr+0xa88>
          if(ball_sent.data[j]==colour){ break; }
   22860:	0001883a 	nop
          if(j==(ball_sent.used-1)){ new_data++; }
        }

        appendArray_u8(&ball_colours, colour);
   22864:	00800134 	movhi	r2,4
   22868:	10a3b604 	addi	r2,r2,-28968
   2286c:	1080000b 	ldhu	r2,0(r2)
   22870:	10803fcc 	andi	r2,r2,255
   22874:	100b883a 	mov	r5,r2
   22878:	01000134 	movhi	r4,4
   2287c:	2123fa04 	addi	r4,r4,-28696
   22880:	00217a00 	call	217a0 <appendArray_u8>
        appendArray_u8(&ball_distances, distance);
   22884:	00800134 	movhi	r2,4
   22888:	10a3c104 	addi	r2,r2,-28924
   2288c:	1080000b 	ldhu	r2,0(r2)
   22890:	10803fcc 	andi	r2,r2,255
   22894:	100b883a 	mov	r5,r2
   22898:	01000134 	movhi	r4,4
   2289c:	2123e904 	addi	r4,r4,-28764
   228a0:	00217a00 	call	217a0 <appendArray_u8>
        appendArray_u8(&ball_angles, angle);
   228a4:	00800134 	movhi	r2,4
   228a8:	10a3c384 	addi	r2,r2,-28914
   228ac:	1080000b 	ldhu	r2,0(r2)
   228b0:	10803fcc 	andi	r2,r2,255
   228b4:	100b883a 	mov	r5,r2
   228b8:	01000134 	movhi	r4,4
   228bc:	2123ec04 	addi	r4,r4,-28752
   228c0:	00217a00 	call	217a0 <appendArray_u8>
      printf("Counted %d balls.\n\n", ball_x_min.used);                                                   // Ball count
    #endif

    //----------------------------------------------------------------- Iterate over individual balls detected and process data

    for(alt_u8 i=0; i<(ball_x_min.used); i++){
   228c4:	e0bffd43 	ldbu	r2,-11(fp)
   228c8:	10800044 	addi	r2,r2,1
   228cc:	e0bffd45 	stb	r2,-11(fp)
   228d0:	e0fffd43 	ldbu	r3,-11(fp)
   228d4:	00800134 	movhi	r2,4
   228d8:	10a3f704 	addi	r2,r2,-28708
   228dc:	10800117 	ldw	r2,4(r2)
   228e0:	18bed336 	bltu	r3,r2,22430 <__alt_data_end+0xfffe3030>
      #endif
    }

    //----------------------------------------------------------------- Read and process accelerometer data

    alt_up_accelerometer_spi_read_x_axis(acc_dev, &x_read);
   228e4:	00800134 	movhi	r2,4
   228e8:	10a3cc04 	addi	r2,r2,-28880
   228ec:	10800017 	ldw	r2,0(r2)
   228f0:	01400134 	movhi	r5,4
   228f4:	2963c204 	addi	r5,r5,-28920
   228f8:	1009883a 	mov	r4,r2
   228fc:	00329580 	call	32958 <alt_up_accelerometer_spi_read_x_axis>
    alt_up_accelerometer_spi_read_y_axis(acc_dev, &y_read);
   22900:	00800134 	movhi	r2,4
   22904:	10a3cc04 	addi	r2,r2,-28880
   22908:	10800017 	ldw	r2,0(r2)
   2290c:	01400134 	movhi	r5,4
   22910:	2963be04 	addi	r5,r5,-28936
   22914:	1009883a 	mov	r4,r2
   22918:	0032a240 	call	32a24 <alt_up_accelerometer_spi_read_y_axis>
    alt_up_accelerometer_spi_read_z_axis(acc_dev, &z_read);
   2291c:	00800134 	movhi	r2,4
   22920:	10a3cc04 	addi	r2,r2,-28880
   22924:	10800017 	ldw	r2,0(r2)
   22928:	01400134 	movhi	r5,4
   2292c:	2963b704 	addi	r5,r5,-28964
   22930:	1009883a 	mov	r4,r2
   22934:	0032af00 	call	32af0 <alt_up_accelerometer_spi_read_z_axis>

    x_read -= x_drift;
    y_read -= y_drift;
    z_read -= z_drift;*/

    y_read += 0x10;
   22938:	00800134 	movhi	r2,4
   2293c:	10a3be04 	addi	r2,r2,-28936
   22940:	10800017 	ldw	r2,0(r2)
   22944:	10c00404 	addi	r3,r2,16
   22948:	00800134 	movhi	r2,4
   2294c:	10a3be04 	addi	r2,r2,-28936
   22950:	10c00015 	stw	r3,0(r2)

    if(y_read<0){ a = (((-y_read)<<22)/z_read)>>16; }
   22954:	00800134 	movhi	r2,4
   22958:	10a3be04 	addi	r2,r2,-28936
   2295c:	10800017 	ldw	r2,0(r2)
   22960:	1000110e 	bge	r2,zero,229a8 <sys_timer_isr+0xbcc>
   22964:	00800134 	movhi	r2,4
   22968:	10a3be04 	addi	r2,r2,-28936
   2296c:	10800017 	ldw	r2,0(r2)
   22970:	0085c83a 	sub	r2,zero,r2
   22974:	100695ba 	slli	r3,r2,22
   22978:	00800134 	movhi	r2,4
   2297c:	10a3b704 	addi	r2,r2,-28964
   22980:	10800017 	ldw	r2,0(r2)
   22984:	100b883a 	mov	r5,r2
   22988:	1809883a 	mov	r4,r3
   2298c:	002439c0 	call	2439c <__divsi3>
   22990:	1005d43a 	srai	r2,r2,16
   22994:	1007883a 	mov	r3,r2
   22998:	00800134 	movhi	r2,4
   2299c:	10a3cb04 	addi	r2,r2,-28884
   229a0:	10c00015 	stw	r3,0(r2)
   229a4:	00000f06 	br	229e4 <sys_timer_isr+0xc08>
    else{ a = ((y_read<<22)/z_read)>>16; }
   229a8:	00800134 	movhi	r2,4
   229ac:	10a3be04 	addi	r2,r2,-28936
   229b0:	10800017 	ldw	r2,0(r2)
   229b4:	100695ba 	slli	r3,r2,22
   229b8:	00800134 	movhi	r2,4
   229bc:	10a3b704 	addi	r2,r2,-28964
   229c0:	10800017 	ldw	r2,0(r2)
   229c4:	100b883a 	mov	r5,r2
   229c8:	1809883a 	mov	r4,r3
   229cc:	002439c0 	call	2439c <__divsi3>
   229d0:	1005d43a 	srai	r2,r2,16
   229d4:	1007883a 	mov	r3,r2
   229d8:	00800134 	movhi	r2,4
   229dc:	10a3cb04 	addi	r2,r2,-28884
   229e0:	10c00015 	stw	r3,0(r2)

    a2 = a*a;
   229e4:	00800134 	movhi	r2,4
   229e8:	10a3cb04 	addi	r2,r2,-28884
   229ec:	10c00017 	ldw	r3,0(r2)
   229f0:	00800134 	movhi	r2,4
   229f4:	10a3cb04 	addi	r2,r2,-28884
   229f8:	10800017 	ldw	r2,0(r2)
   229fc:	1887383a 	mul	r3,r3,r2
   22a00:	00800134 	movhi	r2,4
   22a04:	10a3c704 	addi	r2,r2,-28900
   22a08:	10c00015 	stw	r3,0(r2)
    a3 = a*a2;
   22a0c:	00800134 	movhi	r2,4
   22a10:	10a3cb04 	addi	r2,r2,-28884
   22a14:	10c00017 	ldw	r3,0(r2)
   22a18:	00800134 	movhi	r2,4
   22a1c:	10a3c704 	addi	r2,r2,-28900
   22a20:	10800017 	ldw	r2,0(r2)
   22a24:	1887383a 	mul	r3,r3,r2
   22a28:	00800134 	movhi	r2,4
   22a2c:	10a3c004 	addi	r2,r2,-28928
   22a30:	10c00015 	stw	r3,0(r2)
    a5 = a2*a3;
   22a34:	00800134 	movhi	r2,4
   22a38:	10a3c704 	addi	r2,r2,-28900
   22a3c:	10c00017 	ldw	r3,0(r2)
   22a40:	00800134 	movhi	r2,4
   22a44:	10a3c004 	addi	r2,r2,-28928
   22a48:	10800017 	ldw	r2,0(r2)
   22a4c:	1887383a 	mul	r3,r3,r2
   22a50:	00800134 	movhi	r2,4
   22a54:	10a3c504 	addi	r2,r2,-28908
   22a58:	10c00015 	stw	r3,0(r2)

    a  <<= 24;
   22a5c:	00800134 	movhi	r2,4
   22a60:	10a3cb04 	addi	r2,r2,-28884
   22a64:	10800017 	ldw	r2,0(r2)
   22a68:	1006963a 	slli	r3,r2,24
   22a6c:	00800134 	movhi	r2,4
   22a70:	10a3cb04 	addi	r2,r2,-28884
   22a74:	10c00015 	stw	r3,0(r2)
    a3 <<= 12;
   22a78:	00800134 	movhi	r2,4
   22a7c:	10a3c004 	addi	r2,r2,-28928
   22a80:	10800017 	ldw	r2,0(r2)
   22a84:	1006933a 	slli	r3,r2,12
   22a88:	00800134 	movhi	r2,4
   22a8c:	10a3c004 	addi	r2,r2,-28928
   22a90:	10c00015 	stw	r3,0(r2)

    incl = (a - (a>>3) + (a3>>2) - (a5>>3))>>24;
   22a94:	00800134 	movhi	r2,4
   22a98:	10a3cb04 	addi	r2,r2,-28884
   22a9c:	10c00017 	ldw	r3,0(r2)
   22aa0:	00800134 	movhi	r2,4
   22aa4:	10a3cb04 	addi	r2,r2,-28884
   22aa8:	10800017 	ldw	r2,0(r2)
   22aac:	1004d0fa 	srli	r2,r2,3
   22ab0:	1887c83a 	sub	r3,r3,r2
   22ab4:	00800134 	movhi	r2,4
   22ab8:	10a3c004 	addi	r2,r2,-28928
   22abc:	10800017 	ldw	r2,0(r2)
   22ac0:	1004d0ba 	srli	r2,r2,2
   22ac4:	1887883a 	add	r3,r3,r2
   22ac8:	00800134 	movhi	r2,4
   22acc:	10a3c504 	addi	r2,r2,-28908
   22ad0:	10800017 	ldw	r2,0(r2)
   22ad4:	1004d0fa 	srli	r2,r2,3
   22ad8:	1885c83a 	sub	r2,r3,r2
   22adc:	1004d63a 	srli	r2,r2,24
   22ae0:	1007883a 	mov	r3,r2
   22ae4:	00800134 	movhi	r2,4
   22ae8:	10a3c804 	addi	r2,r2,-28896
   22aec:	10c00005 	stb	r3,0(r2)

    #ifdef VIEW_ACC_READS
      printf("X = %04x   Y = %04x   Z = %04x\n", x_read, y_read, z_read);
   22af0:	00800134 	movhi	r2,4
   22af4:	10a3c204 	addi	r2,r2,-28920
   22af8:	10c00017 	ldw	r3,0(r2)
   22afc:	00800134 	movhi	r2,4
   22b00:	10a3be04 	addi	r2,r2,-28936
   22b04:	11000017 	ldw	r4,0(r2)
   22b08:	00800134 	movhi	r2,4
   22b0c:	10a3b704 	addi	r2,r2,-28964
   22b10:	10800017 	ldw	r2,0(r2)
   22b14:	100f883a 	mov	r7,r2
   22b18:	200d883a 	mov	r6,r4
   22b1c:	180b883a 	mov	r5,r3
   22b20:	010000f4 	movhi	r4,3
   22b24:	2110d904 	addi	r4,r4,17252
   22b28:	0024edc0 	call	24edc <printf>
      printf("Tilt: %08x\n", incl);
   22b2c:	00800134 	movhi	r2,4
   22b30:	10a3c804 	addi	r2,r2,-28896
   22b34:	10800003 	ldbu	r2,0(r2)
   22b38:	10803fcc 	andi	r2,r2,255
   22b3c:	100b883a 	mov	r5,r2
   22b40:	010000f4 	movhi	r4,3
   22b44:	2110e104 	addi	r4,r4,17284
   22b48:	0024edc0 	call	24edc <printf>
    #endif

    //----------------------------------------------------------------- Send messages to UART using processed data

    // Stop the rover if a ball is very close
    if(ctrl_uart&&moving&&(!stop_ticks)&&((closest_distance<30)||(ball_bounds[3]>=472))){
   22b4c:	00800134 	movhi	r2,4
   22b50:	10a3bd04 	addi	r2,r2,-28940
   22b54:	10800017 	ldw	r2,0(r2)
   22b58:	10002626 	beq	r2,zero,22bf4 <sys_timer_isr+0xe18>
   22b5c:	d0a8d7c3 	ldbu	r2,-23713(gp)
   22b60:	10803fcc 	andi	r2,r2,255
   22b64:	10002326 	beq	r2,zero,22bf4 <sys_timer_isr+0xe18>
   22b68:	d0a8d843 	ldbu	r2,-23711(gp)
   22b6c:	10803fcc 	andi	r2,r2,255
   22b70:	1000201e 	bne	r2,zero,22bf4 <sys_timer_isr+0xe18>
   22b74:	d0a00503 	ldbu	r2,-32748(gp)
   22b78:	10803fcc 	andi	r2,r2,255
   22b7c:	108007b0 	cmpltui	r2,r2,30
   22b80:	1000061e 	bne	r2,zero,22b9c <sys_timer_isr+0xdc0>
   22b84:	00800134 	movhi	r2,4
   22b88:	10a3b804 	addi	r2,r2,-28960
   22b8c:	1080018b 	ldhu	r2,6(r2)
   22b90:	10bfffcc 	andi	r2,r2,65535
   22b94:	10807630 	cmpltui	r2,r2,472
   22b98:	1000161e 	bne	r2,zero,22bf4 <sys_timer_isr+0xe18>
      if(alt_up_rs232_get_available_space_in_write_FIFO(ctrl_uart)){
   22b9c:	00800134 	movhi	r2,4
   22ba0:	10a3bd04 	addi	r2,r2,-28940
   22ba4:	10800017 	ldw	r2,0(r2)
   22ba8:	1009883a 	mov	r4,r2
   22bac:	0032cb80 	call	32cb8 <alt_up_rs232_get_available_space_in_write_FIFO>
   22bb0:	10000d26 	beq	r2,zero,22be8 <sys_timer_isr+0xe0c>
        alt_up_rs232_write_data(ctrl_uart, 's');
   22bb4:	00800134 	movhi	r2,4
   22bb8:	10a3bd04 	addi	r2,r2,-28940
   22bbc:	10800017 	ldw	r2,0(r2)
   22bc0:	01401cc4 	movi	r5,115
   22bc4:	1009883a 	mov	r4,r2
   22bc8:	0032d380 	call	32d38 <alt_up_rs232_write_data>
        stop_reasoned = 0;
   22bcc:	00800134 	movhi	r2,4
   22bd0:	10a3ba84 	addi	r2,r2,-28950
   22bd4:	10000005 	stb	zero,0(r2)
        last_command = 's';
   22bd8:	00801cc4 	movi	r2,115
   22bdc:	d0a00545 	stb	r2,-32747(gp)
        stop_ticks = 9;
   22be0:	00800244 	movi	r2,9
   22be4:	d0a8d845 	stb	r2,-23711(gp)
      }

      #ifdef VIEW_UART_MSGS
        printf("UART sent: s\n");
   22be8:	010000f4 	movhi	r4,3
   22bec:	2110e404 	addi	r4,r4,17296
   22bf0:	0024fd80 	call	24fd8 <puts>
      #endif
    }

    // Pause the rover if new data has to be transmitted
    if(ctrl_uart&&moving&&(!stop_ticks)&&new_data){
   22bf4:	00800134 	movhi	r2,4
   22bf8:	10a3bd04 	addi	r2,r2,-28940
   22bfc:	10800017 	ldw	r2,0(r2)
   22c00:	10001e26 	beq	r2,zero,22c7c <sys_timer_isr+0xea0>
   22c04:	d0a8d7c3 	ldbu	r2,-23713(gp)
   22c08:	10803fcc 	andi	r2,r2,255
   22c0c:	10001b26 	beq	r2,zero,22c7c <sys_timer_isr+0xea0>
   22c10:	d0a8d843 	ldbu	r2,-23711(gp)
   22c14:	10803fcc 	andi	r2,r2,255
   22c18:	1000181e 	bne	r2,zero,22c7c <sys_timer_isr+0xea0>
   22c1c:	00800134 	movhi	r2,4
   22c20:	10a3bc04 	addi	r2,r2,-28944
   22c24:	10800003 	ldbu	r2,0(r2)
   22c28:	10803fcc 	andi	r2,r2,255
   22c2c:	10001326 	beq	r2,zero,22c7c <sys_timer_isr+0xea0>
      if(alt_up_rs232_get_available_space_in_write_FIFO(ctrl_uart)){
   22c30:	00800134 	movhi	r2,4
   22c34:	10a3bd04 	addi	r2,r2,-28940
   22c38:	10800017 	ldw	r2,0(r2)
   22c3c:	1009883a 	mov	r4,r2
   22c40:	0032cb80 	call	32cb8 <alt_up_rs232_get_available_space_in_write_FIFO>
   22c44:	10000a26 	beq	r2,zero,22c70 <sys_timer_isr+0xe94>
        alt_up_rs232_write_data(ctrl_uart, 'p');
   22c48:	00800134 	movhi	r2,4
   22c4c:	10a3bd04 	addi	r2,r2,-28940
   22c50:	10800017 	ldw	r2,0(r2)
   22c54:	01401c04 	movi	r5,112
   22c58:	1009883a 	mov	r4,r2
   22c5c:	0032d380 	call	32d38 <alt_up_rs232_write_data>
        last_command = 'p';
   22c60:	00801c04 	movi	r2,112
   22c64:	d0a00545 	stb	r2,-32747(gp)
        stop_ticks = 9;
   22c68:	00800244 	movi	r2,9
   22c6c:	d0a8d845 	stb	r2,-23711(gp)
      }

      #ifdef VIEW_UART_MSGS
        printf("UART sent: p\n");
   22c70:	010000f4 	movhi	r4,3
   22c74:	2110e804 	addi	r4,r4,17312
   22c78:	0024fd80 	call	24fd8 <puts>
      #endif
    }

    // Transmit the reason for stopping the rover, send 'X00+00' if data not available
    if(ctrl_uart&&(!moving)&&(last_command=='s')&&(!ack)&&(!stop_reasoned)){
   22c7c:	00800134 	movhi	r2,4
   22c80:	10a3bd04 	addi	r2,r2,-28940
   22c84:	10800017 	ldw	r2,0(r2)
   22c88:	10004626 	beq	r2,zero,22da4 <sys_timer_isr+0xfc8>
   22c8c:	d0a8d7c3 	ldbu	r2,-23713(gp)
   22c90:	10803fcc 	andi	r2,r2,255
   22c94:	1000431e 	bne	r2,zero,22da4 <sys_timer_isr+0xfc8>
   22c98:	d0a00543 	ldbu	r2,-32747(gp)
   22c9c:	10803fcc 	andi	r2,r2,255
   22ca0:	10801cd8 	cmpnei	r2,r2,115
   22ca4:	10003f1e 	bne	r2,zero,22da4 <sys_timer_isr+0xfc8>
   22ca8:	d0a8d803 	ldbu	r2,-23712(gp)
   22cac:	10803fcc 	andi	r2,r2,255
   22cb0:	10003c1e 	bne	r2,zero,22da4 <sys_timer_isr+0xfc8>
   22cb4:	00800134 	movhi	r2,4
   22cb8:	10a3ba84 	addi	r2,r2,-28950
   22cbc:	10800003 	ldbu	r2,0(r2)
   22cc0:	10803fcc 	andi	r2,r2,255
   22cc4:	1000371e 	bne	r2,zero,22da4 <sys_timer_isr+0xfc8>
      if((closest_index==0xFF)||(ball_distances.data[closest_index]>30)){ send_ball_data('X', 0, 0); }
   22cc8:	00800134 	movhi	r2,4
   22ccc:	10a3c404 	addi	r2,r2,-28912
   22cd0:	10800003 	ldbu	r2,0(r2)
   22cd4:	10803fcc 	andi	r2,r2,255
   22cd8:	10803fe0 	cmpeqi	r2,r2,255
   22cdc:	10000c1e 	bne	r2,zero,22d10 <sys_timer_isr+0xf34>
   22ce0:	00800134 	movhi	r2,4
   22ce4:	10a3e904 	addi	r2,r2,-28764
   22ce8:	10c00017 	ldw	r3,0(r2)
   22cec:	00800134 	movhi	r2,4
   22cf0:	10a3c404 	addi	r2,r2,-28912
   22cf4:	10800003 	ldbu	r2,0(r2)
   22cf8:	10803fcc 	andi	r2,r2,255
   22cfc:	1885883a 	add	r2,r3,r2
   22d00:	10800003 	ldbu	r2,0(r2)
   22d04:	10803fcc 	andi	r2,r2,255
   22d08:	108007f0 	cmpltui	r2,r2,31
   22d0c:	1000051e 	bne	r2,zero,22d24 <sys_timer_isr+0xf48>
   22d10:	000d883a 	mov	r6,zero
   22d14:	000b883a 	mov	r5,zero
   22d18:	01001604 	movi	r4,88
   22d1c:	0021b800 	call	21b80 <send_ball_data>
   22d20:	00002006 	br	22da4 <sys_timer_isr+0xfc8>
      else{ send_ball_data(ball_colours.data[closest_index], ball_distances.data[closest_index], ball_angles.data[closest_index]); }
   22d24:	00800134 	movhi	r2,4
   22d28:	10a3fa04 	addi	r2,r2,-28696
   22d2c:	10c00017 	ldw	r3,0(r2)
   22d30:	00800134 	movhi	r2,4
   22d34:	10a3c404 	addi	r2,r2,-28912
   22d38:	10800003 	ldbu	r2,0(r2)
   22d3c:	10803fcc 	andi	r2,r2,255
   22d40:	1885883a 	add	r2,r3,r2
   22d44:	10800003 	ldbu	r2,0(r2)
   22d48:	11003fcc 	andi	r4,r2,255
   22d4c:	00800134 	movhi	r2,4
   22d50:	10a3e904 	addi	r2,r2,-28764
   22d54:	10c00017 	ldw	r3,0(r2)
   22d58:	00800134 	movhi	r2,4
   22d5c:	10a3c404 	addi	r2,r2,-28912
   22d60:	10800003 	ldbu	r2,0(r2)
   22d64:	10803fcc 	andi	r2,r2,255
   22d68:	1885883a 	add	r2,r3,r2
   22d6c:	10800003 	ldbu	r2,0(r2)
   22d70:	11403fcc 	andi	r5,r2,255
   22d74:	00800134 	movhi	r2,4
   22d78:	10a3ec04 	addi	r2,r2,-28752
   22d7c:	10c00017 	ldw	r3,0(r2)
   22d80:	00800134 	movhi	r2,4
   22d84:	10a3c404 	addi	r2,r2,-28912
   22d88:	10800003 	ldbu	r2,0(r2)
   22d8c:	10803fcc 	andi	r2,r2,255
   22d90:	1885883a 	add	r2,r3,r2
   22d94:	10800003 	ldbu	r2,0(r2)
   22d98:	10803fcc 	andi	r2,r2,255
   22d9c:	100d883a 	mov	r6,r2
   22da0:	0021b800 	call	21b80 <send_ball_data>
    }

    // Transmit ball data if there is new data available
    if(ctrl_uart&&(!moving)&&new_data&&((last_command=='s')||(last_command=='p'))&&(!ack)){
   22da4:	00800134 	movhi	r2,4
   22da8:	10a3bd04 	addi	r2,r2,-28940
   22dac:	10800017 	ldw	r2,0(r2)
   22db0:	10006f26 	beq	r2,zero,22f70 <sys_timer_isr+0x1194>
   22db4:	d0a8d7c3 	ldbu	r2,-23713(gp)
   22db8:	10803fcc 	andi	r2,r2,255
   22dbc:	10006c1e 	bne	r2,zero,22f70 <sys_timer_isr+0x1194>
   22dc0:	00800134 	movhi	r2,4
   22dc4:	10a3bc04 	addi	r2,r2,-28944
   22dc8:	10800003 	ldbu	r2,0(r2)
   22dcc:	10803fcc 	andi	r2,r2,255
   22dd0:	10006726 	beq	r2,zero,22f70 <sys_timer_isr+0x1194>
   22dd4:	d0a00543 	ldbu	r2,-32747(gp)
   22dd8:	10803fcc 	andi	r2,r2,255
   22ddc:	10801ce0 	cmpeqi	r2,r2,115
   22de0:	1000041e 	bne	r2,zero,22df4 <sys_timer_isr+0x1018>
   22de4:	d0a00543 	ldbu	r2,-32747(gp)
   22de8:	10803fcc 	andi	r2,r2,255
   22dec:	10801c18 	cmpnei	r2,r2,112
   22df0:	10005f1e 	bne	r2,zero,22f70 <sys_timer_isr+0x1194>
   22df4:	d0a8d803 	ldbu	r2,-23712(gp)
   22df8:	10803fcc 	andi	r2,r2,255
   22dfc:	10005c1e 	bne	r2,zero,22f70 <sys_timer_isr+0x1194>

      if(ball_sent.used==0){ send_ball_data(ball_colours.data[0], ball_distances.data[0], ball_angles.data[0]); }
   22e00:	00800134 	movhi	r2,4
   22e04:	10a3f404 	addi	r2,r2,-28720
   22e08:	10800117 	ldw	r2,4(r2)
   22e0c:	1000131e 	bne	r2,zero,22e5c <sys_timer_isr+0x1080>
   22e10:	00800134 	movhi	r2,4
   22e14:	10a3fa04 	addi	r2,r2,-28696
   22e18:	10800017 	ldw	r2,0(r2)
   22e1c:	10800003 	ldbu	r2,0(r2)
   22e20:	10c03fcc 	andi	r3,r2,255
   22e24:	00800134 	movhi	r2,4
   22e28:	10a3e904 	addi	r2,r2,-28764
   22e2c:	10800017 	ldw	r2,0(r2)
   22e30:	10800003 	ldbu	r2,0(r2)
   22e34:	11003fcc 	andi	r4,r2,255
   22e38:	00800134 	movhi	r2,4
   22e3c:	10a3ec04 	addi	r2,r2,-28752
   22e40:	10800017 	ldw	r2,0(r2)
   22e44:	10800003 	ldbu	r2,0(r2)
   22e48:	10803fcc 	andi	r2,r2,255
   22e4c:	100d883a 	mov	r6,r2
   22e50:	200b883a 	mov	r5,r4
   22e54:	1809883a 	mov	r4,r3
   22e58:	0021b800 	call	21b80 <send_ball_data>
      for(alt_u8 i=0; (i<(ball_colours.used))&&(!ack); i++){
   22e5c:	e03ffe05 	stb	zero,-8(fp)
   22e60:	00003b06 	br	22f50 <sys_timer_isr+0x1174>
        for(alt_u8 j=0; j<(ball_sent.used); j++){
   22e64:	e03ffe45 	stb	zero,-7(fp)
   22e68:	00002f06 	br	22f28 <sys_timer_isr+0x114c>
          if(ball_sent.data[j]==ball_colours.data[i]){ break; }
   22e6c:	00800134 	movhi	r2,4
   22e70:	10a3f404 	addi	r2,r2,-28720
   22e74:	10c00017 	ldw	r3,0(r2)
   22e78:	e0bffe43 	ldbu	r2,-7(fp)
   22e7c:	1885883a 	add	r2,r3,r2
   22e80:	11000003 	ldbu	r4,0(r2)
   22e84:	00800134 	movhi	r2,4
   22e88:	10a3fa04 	addi	r2,r2,-28696
   22e8c:	10c00017 	ldw	r3,0(r2)
   22e90:	e0bffe03 	ldbu	r2,-8(fp)
   22e94:	1885883a 	add	r2,r3,r2
   22e98:	10800003 	ldbu	r2,0(r2)
   22e9c:	20c03fcc 	andi	r3,r4,255
   22ea0:	10803fcc 	andi	r2,r2,255
   22ea4:	18802626 	beq	r3,r2,22f40 <sys_timer_isr+0x1164>
          if(j==(ball_sent.used-1)){ send_ball_data(ball_colours.data[i], ball_distances.data[i], ball_angles.data[i]); }
   22ea8:	e0fffe43 	ldbu	r3,-7(fp)
   22eac:	00800134 	movhi	r2,4
   22eb0:	10a3f404 	addi	r2,r2,-28720
   22eb4:	10800117 	ldw	r2,4(r2)
   22eb8:	10bfffc4 	addi	r2,r2,-1
   22ebc:	1880171e 	bne	r3,r2,22f1c <sys_timer_isr+0x1140>
   22ec0:	00800134 	movhi	r2,4
   22ec4:	10a3fa04 	addi	r2,r2,-28696
   22ec8:	10c00017 	ldw	r3,0(r2)
   22ecc:	e0bffe03 	ldbu	r2,-8(fp)
   22ed0:	1885883a 	add	r2,r3,r2
   22ed4:	10800003 	ldbu	r2,0(r2)
   22ed8:	11003fcc 	andi	r4,r2,255
   22edc:	00800134 	movhi	r2,4
   22ee0:	10a3e904 	addi	r2,r2,-28764
   22ee4:	10c00017 	ldw	r3,0(r2)
   22ee8:	e0bffe03 	ldbu	r2,-8(fp)
   22eec:	1885883a 	add	r2,r3,r2
   22ef0:	10800003 	ldbu	r2,0(r2)
   22ef4:	11403fcc 	andi	r5,r2,255
   22ef8:	00800134 	movhi	r2,4
   22efc:	10a3ec04 	addi	r2,r2,-28752
   22f00:	10c00017 	ldw	r3,0(r2)
   22f04:	e0bffe03 	ldbu	r2,-8(fp)
   22f08:	1885883a 	add	r2,r3,r2
   22f0c:	10800003 	ldbu	r2,0(r2)
   22f10:	10803fcc 	andi	r2,r2,255
   22f14:	100d883a 	mov	r6,r2
   22f18:	0021b800 	call	21b80 <send_ball_data>
    // Transmit ball data if there is new data available
    if(ctrl_uart&&(!moving)&&new_data&&((last_command=='s')||(last_command=='p'))&&(!ack)){

      if(ball_sent.used==0){ send_ball_data(ball_colours.data[0], ball_distances.data[0], ball_angles.data[0]); }
      for(alt_u8 i=0; (i<(ball_colours.used))&&(!ack); i++){
        for(alt_u8 j=0; j<(ball_sent.used); j++){
   22f1c:	e0bffe43 	ldbu	r2,-7(fp)
   22f20:	10800044 	addi	r2,r2,1
   22f24:	e0bffe45 	stb	r2,-7(fp)
   22f28:	e0fffe43 	ldbu	r3,-7(fp)
   22f2c:	00800134 	movhi	r2,4
   22f30:	10a3f404 	addi	r2,r2,-28720
   22f34:	10800117 	ldw	r2,4(r2)
   22f38:	18bfcc36 	bltu	r3,r2,22e6c <__alt_data_end+0xfffe3a6c>
   22f3c:	00000106 	br	22f44 <sys_timer_isr+0x1168>
          if(ball_sent.data[j]==ball_colours.data[i]){ break; }
   22f40:	0001883a 	nop

    // Transmit ball data if there is new data available
    if(ctrl_uart&&(!moving)&&new_data&&((last_command=='s')||(last_command=='p'))&&(!ack)){

      if(ball_sent.used==0){ send_ball_data(ball_colours.data[0], ball_distances.data[0], ball_angles.data[0]); }
      for(alt_u8 i=0; (i<(ball_colours.used))&&(!ack); i++){
   22f44:	e0bffe03 	ldbu	r2,-8(fp)
   22f48:	10800044 	addi	r2,r2,1
   22f4c:	e0bffe05 	stb	r2,-8(fp)
   22f50:	e0fffe03 	ldbu	r3,-8(fp)
   22f54:	00800134 	movhi	r2,4
   22f58:	10a3fa04 	addi	r2,r2,-28696
   22f5c:	10800117 	ldw	r2,4(r2)
   22f60:	1880032e 	bgeu	r3,r2,22f70 <sys_timer_isr+0x1194>
   22f64:	d0a8d803 	ldbu	r2,-23712(gp)
   22f68:	10803fcc 	andi	r2,r2,255
   22f6c:	103fbd26 	beq	r2,zero,22e64 <__alt_data_end+0xfffe3a64>
        }
      }
    }

    // When there is no more new data and stop reason has been transmitted, send continue signal
    if(ctrl_uart&&(!moving)&&(!new_data)&&((last_command=='s')||(last_command=='p'))&&(!ack)){
   22f70:	00800134 	movhi	r2,4
   22f74:	10a3bd04 	addi	r2,r2,-28940
   22f78:	10800017 	ldw	r2,0(r2)
   22f7c:	10002526 	beq	r2,zero,23014 <sys_timer_isr+0x1238>
   22f80:	d0a8d7c3 	ldbu	r2,-23713(gp)
   22f84:	10803fcc 	andi	r2,r2,255
   22f88:	1000221e 	bne	r2,zero,23014 <sys_timer_isr+0x1238>
   22f8c:	00800134 	movhi	r2,4
   22f90:	10a3bc04 	addi	r2,r2,-28944
   22f94:	10800003 	ldbu	r2,0(r2)
   22f98:	10803fcc 	andi	r2,r2,255
   22f9c:	10001d1e 	bne	r2,zero,23014 <sys_timer_isr+0x1238>
   22fa0:	d0a00543 	ldbu	r2,-32747(gp)
   22fa4:	10803fcc 	andi	r2,r2,255
   22fa8:	10801ce0 	cmpeqi	r2,r2,115
   22fac:	1000041e 	bne	r2,zero,22fc0 <sys_timer_isr+0x11e4>
   22fb0:	d0a00543 	ldbu	r2,-32747(gp)
   22fb4:	10803fcc 	andi	r2,r2,255
   22fb8:	10801c18 	cmpnei	r2,r2,112
   22fbc:	1000151e 	bne	r2,zero,23014 <sys_timer_isr+0x1238>
   22fc0:	d0a8d803 	ldbu	r2,-23712(gp)
   22fc4:	10803fcc 	andi	r2,r2,255
   22fc8:	1000121e 	bne	r2,zero,23014 <sys_timer_isr+0x1238>
      if(alt_up_rs232_get_available_space_in_write_FIFO(ctrl_uart)){
   22fcc:	00800134 	movhi	r2,4
   22fd0:	10a3bd04 	addi	r2,r2,-28940
   22fd4:	10800017 	ldw	r2,0(r2)
   22fd8:	1009883a 	mov	r4,r2
   22fdc:	0032cb80 	call	32cb8 <alt_up_rs232_get_available_space_in_write_FIFO>
   22fe0:	10000c26 	beq	r2,zero,23014 <sys_timer_isr+0x1238>
        alt_up_rs232_write_data(ctrl_uart, 'c');
   22fe4:	00800134 	movhi	r2,4
   22fe8:	10a3bd04 	addi	r2,r2,-28940
   22fec:	10800017 	ldw	r2,0(r2)
   22ff0:	014018c4 	movi	r5,99
   22ff4:	1009883a 	mov	r4,r2
   22ff8:	0032d380 	call	32d38 <alt_up_rs232_write_data>
        last_command = 'c';
   22ffc:	008018c4 	movi	r2,99
   23000:	d0a00545 	stb	r2,-32747(gp)
        stop_ticks = 0;
   23004:	d028d845 	stb	zero,-23711(gp)

        #ifdef VIEW_UART_MSGS
          printf("UART sent: c\n");
   23008:	010000f4 	movhi	r4,3
   2300c:	2110ec04 	addi	r4,r4,17328
   23010:	0024fd80 	call	24fd8 <puts>
        #endif
      }
    }

    // If UART is free otherwise, send tilt sensor data
    if(ctrl_uart&&(!stop_ticks)&&(!ack)&&(last_command=='c')&&(!acc_ticks)){
   23014:	00800134 	movhi	r2,4
   23018:	10a3bd04 	addi	r2,r2,-28940
   2301c:	10800017 	ldw	r2,0(r2)
   23020:	10004b26 	beq	r2,zero,23150 <sys_timer_isr+0x1374>
   23024:	d0a8d843 	ldbu	r2,-23711(gp)
   23028:	10803fcc 	andi	r2,r2,255
   2302c:	1000481e 	bne	r2,zero,23150 <sys_timer_isr+0x1374>
   23030:	d0a8d803 	ldbu	r2,-23712(gp)
   23034:	10803fcc 	andi	r2,r2,255
   23038:	1000451e 	bne	r2,zero,23150 <sys_timer_isr+0x1374>
   2303c:	d0a00543 	ldbu	r2,-32747(gp)
   23040:	10803fcc 	andi	r2,r2,255
   23044:	108018d8 	cmpnei	r2,r2,99
   23048:	1000411e 	bne	r2,zero,23150 <sys_timer_isr+0x1374>
   2304c:	d0a8d883 	ldbu	r2,-23710(gp)
   23050:	10803fcc 	andi	r2,r2,255
   23054:	10003e1e 	bne	r2,zero,23150 <sys_timer_isr+0x1374>
      if(alt_up_rs232_get_available_space_in_write_FIFO(ctrl_uart)>4){
   23058:	00800134 	movhi	r2,4
   2305c:	10a3bd04 	addi	r2,r2,-28940
   23060:	10800017 	ldw	r2,0(r2)
   23064:	1009883a 	mov	r4,r2
   23068:	0032cb80 	call	32cb8 <alt_up_rs232_get_available_space_in_write_FIFO>
   2306c:	10800170 	cmpltui	r2,r2,5
   23070:	1000371e 	bne	r2,zero,23150 <sys_timer_isr+0x1374>
        alt_up_rs232_write_data(ctrl_uart, 't');
   23074:	00800134 	movhi	r2,4
   23078:	10a3bd04 	addi	r2,r2,-28940
   2307c:	10800017 	ldw	r2,0(r2)
   23080:	01401d04 	movi	r5,116
   23084:	1009883a 	mov	r4,r2
   23088:	0032d380 	call	32d38 <alt_up_rs232_write_data>
        if(y_read<0){ alt_up_rs232_write_data(ctrl_uart, '-'); }
   2308c:	00800134 	movhi	r2,4
   23090:	10a3be04 	addi	r2,r2,-28936
   23094:	10800017 	ldw	r2,0(r2)
   23098:	1000070e 	bge	r2,zero,230b8 <sys_timer_isr+0x12dc>
   2309c:	00800134 	movhi	r2,4
   230a0:	10a3bd04 	addi	r2,r2,-28940
   230a4:	10800017 	ldw	r2,0(r2)
   230a8:	01400b44 	movi	r5,45
   230ac:	1009883a 	mov	r4,r2
   230b0:	0032d380 	call	32d38 <alt_up_rs232_write_data>
   230b4:	00000606 	br	230d0 <sys_timer_isr+0x12f4>
        else{ alt_up_rs232_write_data(ctrl_uart, '+'); }
   230b8:	00800134 	movhi	r2,4
   230bc:	10a3bd04 	addi	r2,r2,-28940
   230c0:	10800017 	ldw	r2,0(r2)
   230c4:	01400ac4 	movi	r5,43
   230c8:	1009883a 	mov	r4,r2
   230cc:	0032d380 	call	32d38 <alt_up_rs232_write_data>
        alt_up_rs232_write_data(ctrl_uart, (incl/10)+48);
   230d0:	00800134 	movhi	r2,4
   230d4:	10a3bd04 	addi	r2,r2,-28940
   230d8:	14000017 	ldw	r16,0(r2)
   230dc:	00800134 	movhi	r2,4
   230e0:	10a3c804 	addi	r2,r2,-28896
   230e4:	10800003 	ldbu	r2,0(r2)
   230e8:	10803fcc 	andi	r2,r2,255
   230ec:	01400284 	movi	r5,10
   230f0:	1009883a 	mov	r4,r2
   230f4:	00244940 	call	24494 <__udivsi3>
   230f8:	10800c04 	addi	r2,r2,48
   230fc:	10803fcc 	andi	r2,r2,255
   23100:	100b883a 	mov	r5,r2
   23104:	8009883a 	mov	r4,r16
   23108:	0032d380 	call	32d38 <alt_up_rs232_write_data>
        alt_up_rs232_write_data(ctrl_uart, (incl%10)+48);
   2310c:	00800134 	movhi	r2,4
   23110:	10a3bd04 	addi	r2,r2,-28940
   23114:	14000017 	ldw	r16,0(r2)
   23118:	00800134 	movhi	r2,4
   2311c:	10a3c804 	addi	r2,r2,-28896
   23120:	10800003 	ldbu	r2,0(r2)
   23124:	10803fcc 	andi	r2,r2,255
   23128:	01400284 	movi	r5,10
   2312c:	1009883a 	mov	r4,r2
   23130:	00244f80 	call	244f8 <__umodsi3>
   23134:	10800c04 	addi	r2,r2,48
   23138:	10803fcc 	andi	r2,r2,255
   2313c:	100b883a 	mov	r5,r2
   23140:	8009883a 	mov	r4,r16
   23144:	0032d380 	call	32d38 <alt_up_rs232_write_data>
        acc_ticks = 6;
   23148:	00800184 	movi	r2,6
   2314c:	d0a8d885 	stb	r2,-23710(gp)
      }
    }

    //----------------------------------------------------------------- Update ime variables

    if(stop_ticks){ stop_ticks--; }
   23150:	d0a8d843 	ldbu	r2,-23711(gp)
   23154:	10803fcc 	andi	r2,r2,255
   23158:	10000326 	beq	r2,zero,23168 <sys_timer_isr+0x138c>
   2315c:	d0a8d843 	ldbu	r2,-23711(gp)
   23160:	10bfffc4 	addi	r2,r2,-1
   23164:	d0a8d845 	stb	r2,-23711(gp)
    if(acc_ticks){ acc_ticks--; }
   23168:	d0a8d883 	ldbu	r2,-23710(gp)
   2316c:	10803fcc 	andi	r2,r2,255
   23170:	10000326 	beq	r2,zero,23180 <sys_timer_isr+0x13a4>
   23174:	d0a8d883 	ldbu	r2,-23710(gp)
   23178:	10bfffc4 	addi	r2,r2,-1
   2317c:	d0a8d885 	stb	r2,-23710(gp)
    if(ack){ ack--; }
   23180:	d0a8d803 	ldbu	r2,-23712(gp)
   23184:	10803fcc 	andi	r2,r2,255
   23188:	10000326 	beq	r2,zero,23198 <sys_timer_isr+0x13bc>
   2318c:	d0a8d803 	ldbu	r2,-23712(gp)
   23190:	10bfffc4 	addi	r2,r2,-1
   23194:	d0a8d805 	stb	r2,-23712(gp)
    mem_ticks++;
   23198:	d0a8d90b 	ldhu	r2,-23708(gp)
   2319c:	10800044 	addi	r2,r2,1
   231a0:	d0a8d90d 	sth	r2,-23708(gp)
    if(mem_ticks>=64){                                  // Erase memory every ~20 seconds
   231a4:	d0a8d90b 	ldhu	r2,-23708(gp)
   231a8:	10bfffcc 	andi	r2,r2,65535
   231ac:	10801030 	cmpltui	r2,r2,64
   231b0:	1000011e 	bne	r2,zero,231b8 <sys_timer_isr+0x13dc>
      mem_ticks = 0;
   231b4:	d028d90d 	sth	zero,-23708(gp)
      //ball_sent.used = 0;
    }

    process = 0;
   231b8:	d028d745 	stb	zero,-23715(gp)
    ball_x_min.used = 0;
   231bc:	00800134 	movhi	r2,4
   231c0:	10a3f704 	addi	r2,r2,-28708
   231c4:	10000115 	stw	zero,4(r2)
    ball_x_max.used = 0;
   231c8:	00800134 	movhi	r2,4
   231cc:	10a3e604 	addi	r2,r2,-28776
   231d0:	10000115 	stw	zero,4(r2)
  }

  IOWR_ALTERA_AVALON_TIMER_STATUS(TIMER_BASE, 0);        // Reset timer
   231d4:	0007883a 	mov	r3,zero
   231d8:	00800134 	movhi	r2,4
   231dc:	10840804 	addi	r2,r2,4128
   231e0:	10c00035 	stwio	r3,0(r2)
}
   231e4:	0001883a 	nop
   231e8:	e6ffff04 	addi	sp,fp,-4
   231ec:	dfc00217 	ldw	ra,8(sp)
   231f0:	df000117 	ldw	fp,4(sp)
   231f4:	dc000017 	ldw	r16,0(sp)
   231f8:	dec00304 	addi	sp,sp,12
   231fc:	f800283a 	ret

00023200 <main>:

int main(){
   23200:	defffe04 	addi	sp,sp,-8
   23204:	dfc00115 	stw	ra,4(sp)
   23208:	df000015 	stw	fp,0(sp)
   2320c:	d839883a 	mov	fp,sp

  //////////////////////////////////////////////////////////////////////// - Initialise MIPI, camera, UART, accelerometer, timer

  fcntl(STDIN_FILENO, F_SETFL, O_NONBLOCK);
   23210:	01900004 	movi	r6,16384
   23214:	01400104 	movi	r5,4
   23218:	0009883a 	mov	r4,zero
   2321c:	0030e980 	call	30e98 <fcntl>
  printf("Vision subsystem running...\n");
   23220:	010000f4 	movhi	r4,3
   23224:	2110f004 	addi	r4,r4,17344
   23228:	0024fd80 	call	24fd8 <puts>

  IOWR(MIPI_PWDN_N_BASE, 0x00, 0x00);
   2322c:	0007883a 	mov	r3,zero
   23230:	00800134 	movhi	r2,4
   23234:	10842804 	addi	r2,r2,4256
   23238:	10c00035 	stwio	r3,0(r2)
  IOWR(MIPI_RESET_N_BASE, 0x00, 0x00);
   2323c:	0007883a 	mov	r3,zero
   23240:	00800134 	movhi	r2,4
   23244:	10842c04 	addi	r2,r2,4272
   23248:	10c00035 	stwio	r3,0(r2)
  usleep(2000);
   2324c:	0101f404 	movi	r4,2000
   23250:	0031a340 	call	31a34 <usleep>

  IOWR(MIPI_PWDN_N_BASE, 0x00, 0xFF);
   23254:	00c03fc4 	movi	r3,255
   23258:	00800134 	movhi	r2,4
   2325c:	10842804 	addi	r2,r2,4256
   23260:	10c00035 	stwio	r3,0(r2)
  usleep(2000);
   23264:	0101f404 	movi	r4,2000
   23268:	0031a340 	call	31a34 <usleep>

  IOWR(MIPI_RESET_N_BASE, 0x00, 0xFF);
   2326c:	00c03fc4 	movi	r3,255
   23270:	00800134 	movhi	r2,4
   23274:	10842c04 	addi	r2,r2,4272
   23278:	10c00035 	stwio	r3,0(r2)
  printf("Image Processor ID: %x\n",IORD(EEE_IMGPROC_0_BASE,EEE_IMGPROC_ID));
   2327c:	00800134 	movhi	r2,4
   23280:	10840204 	addi	r2,r2,4104
   23284:	10800037 	ldwio	r2,0(r2)
   23288:	100b883a 	mov	r5,r2
   2328c:	010000f4 	movhi	r4,3
   23290:	2110f704 	addi	r4,r4,17372
   23294:	0024edc0 	call	24edc <printf>
  usleep(2000);
   23298:	0101f404 	movi	r4,2000
   2329c:	0031a340 	call	31a34 <usleep>

  // MIPI Init
  if (!MIPI_Init()){ printf("MIPI_Init failed!\r\n"); }
   232a0:	00216c00 	call	216c0 <MIPI_Init>
   232a4:	1000041e 	bne	r2,zero,232b8 <main+0xb8>
   232a8:	010000f4 	movhi	r4,3
   232ac:	2110fd04 	addi	r4,r4,17396
   232b0:	0024fd80 	call	24fd8 <puts>
   232b4:	00000306 	br	232c4 <main+0xc4>
  else{ printf("MIPI_Init successful!\r\n"); }
   232b8:	010000f4 	movhi	r4,3
   232bc:	21110204 	addi	r4,r4,17416
   232c0:	0024fd80 	call	24fd8 <puts>

  mipi_clear_error();
   232c4:	00213f80 	call	213f8 <mipi_clear_error>
  usleep(50*1000);
   232c8:	0130d414 	movui	r4,50000
   232cc:	0031a340 	call	31a34 <usleep>
  mipi_clear_error();
   232d0:	00213f80 	call	213f8 <mipi_clear_error>
  usleep(1000*1000);
   232d4:	010003f4 	movhi	r4,15
   232d8:	21109004 	addi	r4,r4,16960
   232dc:	0031a340 	call	31a34 <usleep>
  mipi_show_error_info();
   232e0:	00214b00 	call	214b0 <mipi_show_error_info>

  // Init camera
  OV8865SetExposure(exposure);
   232e4:	d0a00417 	ldw	r2,-32752(gp)
   232e8:	1009883a 	mov	r4,r2
   232ec:	0023acc0 	call	23acc <OV8865SetExposure>
  OV8865SetGain(gain);
   232f0:	d0a0030b 	ldhu	r2,-32756(gp)
   232f4:	10bfffcc 	andi	r2,r2,65535
   232f8:	1009883a 	mov	r4,r2
   232fc:	0023bac0 	call	23bac <OV8865SetGain>
  Focus_Init();
   23300:	00210400 	call	21040 <Focus_Init>
  usleep(2000*1000);
   23304:	010007f4 	movhi	r4,31
   23308:	21212004 	addi	r4,r4,-31616
   2330c:	0031a340 	call	31a34 <usleep>

  ctrl_uart = alt_up_rs232_open_dev("/dev/control_uart");
   23310:	010000f4 	movhi	r4,3
   23314:	21110804 	addi	r4,r4,17440
   23318:	0032f100 	call	32f10 <alt_up_rs232_open_dev>
   2331c:	1007883a 	mov	r3,r2
   23320:	00800134 	movhi	r2,4
   23324:	10a3bd04 	addi	r2,r2,-28940
   23328:	10c00015 	stw	r3,0(r2)
  if(ctrl_uart){ printf("Started control uart...\n"); }
   2332c:	00800134 	movhi	r2,4
   23330:	10a3bd04 	addi	r2,r2,-28940
   23334:	10800017 	ldw	r2,0(r2)
   23338:	10000326 	beq	r2,zero,23348 <main+0x148>
   2333c:	010000f4 	movhi	r4,3
   23340:	21110d04 	addi	r4,r4,17460
   23344:	0024fd80 	call	24fd8 <puts>
  acc_dev = alt_up_accelerometer_spi_open_dev("/dev/accelerometer_spi");
   23348:	010000f4 	movhi	r4,3
   2334c:	21111304 	addi	r4,r4,17484
   23350:	00328080 	call	32808 <alt_up_accelerometer_spi_open_dev>
   23354:	1007883a 	mov	r3,r2
   23358:	00800134 	movhi	r2,4
   2335c:	10a3cc04 	addi	r2,r2,-28880
   23360:	10c00015 	stw	r3,0(r2)
  if(acc_dev){ printf("Started accelerometer SPI...\n"); }
   23364:	00800134 	movhi	r2,4
   23368:	10a3cc04 	addi	r2,r2,-28880
   2336c:	10800017 	ldw	r2,0(r2)
   23370:	10000326 	beq	r2,zero,23380 <main+0x180>
   23374:	010000f4 	movhi	r4,3
   23378:	21111904 	addi	r4,r4,17508
   2337c:	0024fd80 	call	24fd8 <puts>

  initArray_u16(&ball_x_min, 5);              // Init dynamic arrays
   23380:	01400144 	movi	r5,5
   23384:	01000134 	movhi	r4,4
   23388:	2123f704 	addi	r4,r4,-28708
   2338c:	00218ac0 	call	218ac <initArray_u16>
  initArray_u16(&ball_x_max, 5);
   23390:	01400144 	movi	r5,5
   23394:	01000134 	movhi	r4,4
   23398:	2123e604 	addi	r4,r4,-28776
   2339c:	00218ac0 	call	218ac <initArray_u16>
  initArray_u8(&ball_colours, 5);
   233a0:	01400144 	movi	r5,5
   233a4:	01000134 	movhi	r4,4
   233a8:	2123fa04 	addi	r4,r4,-28696
   233ac:	00217480 	call	21748 <initArray_u8>
  initArray_u8(&ball_distances, 5);
   233b0:	01400144 	movi	r5,5
   233b4:	01000134 	movhi	r4,4
   233b8:	2123e904 	addi	r4,r4,-28764
   233bc:	00217480 	call	21748 <initArray_u8>
  initArray_u8(&ball_angles, 5);
   233c0:	01400144 	movi	r5,5
   233c4:	01000134 	movhi	r4,4
   233c8:	2123ec04 	addi	r4,r4,-28752
   233cc:	00217480 	call	21748 <initArray_u8>
  initArray_u8(&ball_sent, 5);
   233d0:	01400144 	movi	r5,5
   233d4:	01000134 	movhi	r4,4
   233d8:	2123f404 	addi	r4,r4,-28720
   233dc:	00217480 	call	21748 <initArray_u8>

  timer_init(sys_timer_isr);                  // Start timer
   233e0:	010000b4 	movhi	r4,2
   233e4:	21077704 	addi	r4,r4,7644
   233e8:	0021d4c0 	call	21d4c <timer_init>

  //////////////////////////////////////////////////////////////////////// - Main loop, read from UART

  while(1){

    if(ctrl_uart){
   233ec:	00800134 	movhi	r2,4
   233f0:	10a3bd04 	addi	r2,r2,-28940
   233f4:	10800017 	ldw	r2,0(r2)
   233f8:	103ffc26 	beq	r2,zero,233ec <__alt_data_end+0xfffe3fec>
      alt_up_rs232_enable_read_interrupt(ctrl_uart);
   233fc:	00800134 	movhi	r2,4
   23400:	10a3bd04 	addi	r2,r2,-28940
   23404:	10800017 	ldw	r2,0(r2)
   23408:	1009883a 	mov	r4,r2
   2340c:	0032bbc0 	call	32bbc <alt_up_rs232_enable_read_interrupt>
      if(alt_up_rs232_get_used_space_in_read_FIFO(ctrl_uart)){
   23410:	00800134 	movhi	r2,4
   23414:	10a3bd04 	addi	r2,r2,-28940
   23418:	10800017 	ldw	r2,0(r2)
   2341c:	1009883a 	mov	r4,r2
   23420:	0032c780 	call	32c78 <alt_up_rs232_get_used_space_in_read_FIFO>
   23424:	103ff126 	beq	r2,zero,233ec <__alt_data_end+0xfffe3fec>

        alt_up_rs232_read_data(ctrl_uart, &prompt, &parity);
   23428:	00800134 	movhi	r2,4
   2342c:	10a3bd04 	addi	r2,r2,-28940
   23430:	10800017 	ldw	r2,0(r2)
   23434:	01800134 	movhi	r6,4
   23438:	31a3b404 	addi	r6,r6,-28976
   2343c:	01400134 	movhi	r5,4
   23440:	2963c884 	addi	r5,r5,-28894
   23444:	1009883a 	mov	r4,r2
   23448:	0032d780 	call	32d78 <alt_up_rs232_read_data>
        alt_up_rs232_disable_read_interrupt(ctrl_uart);
   2344c:	00800134 	movhi	r2,4
   23450:	10a3bd04 	addi	r2,r2,-28940
   23454:	10800017 	ldw	r2,0(r2)
   23458:	1009883a 	mov	r4,r2
   2345c:	0032c180 	call	32c18 <alt_up_rs232_disable_read_interrupt>
        if     (prompt=='m'){ moving = 1; }
   23460:	00800134 	movhi	r2,4
   23464:	10a3c884 	addi	r2,r2,-28894
   23468:	10800003 	ldbu	r2,0(r2)
   2346c:	10803fcc 	andi	r2,r2,255
   23470:	10801b58 	cmpnei	r2,r2,109
   23474:	1000031e 	bne	r2,zero,23484 <main+0x284>
   23478:	00800044 	movi	r2,1
   2347c:	d0a8d7c5 	stb	r2,-23713(gp)
   23480:	00004e06 	br	235bc <main+0x3bc>
        else if(prompt=='s'){ moving = 0; }
   23484:	00800134 	movhi	r2,4
   23488:	10a3c884 	addi	r2,r2,-28894
   2348c:	10800003 	ldbu	r2,0(r2)
   23490:	10803fcc 	andi	r2,r2,255
   23494:	10801cd8 	cmpnei	r2,r2,115
   23498:	1000021e 	bne	r2,zero,234a4 <main+0x2a4>
   2349c:	d028d7c5 	stb	zero,-23713(gp)
   234a0:	00004606 	br	235bc <main+0x3bc>
        else if(prompt=='a'){
   234a4:	00800134 	movhi	r2,4
   234a8:	10a3c884 	addi	r2,r2,-28894
   234ac:	10800003 	ldbu	r2,0(r2)
   234b0:	10803fcc 	andi	r2,r2,255
   234b4:	10801858 	cmpnei	r2,r2,97
   234b8:	10000c1e 	bne	r2,zero,234ec <main+0x2ec>
          appendArray_u8(&ball_sent, last_colour);
   234bc:	d0a00583 	ldbu	r2,-32746(gp)
   234c0:	10803fcc 	andi	r2,r2,255
   234c4:	100b883a 	mov	r5,r2
   234c8:	01000134 	movhi	r4,4
   234cc:	2123f404 	addi	r4,r4,-28720
   234d0:	00217a00 	call	217a0 <appendArray_u8>
          ack = 0;
   234d4:	d028d805 	stb	zero,-23712(gp)
          stop_reasoned = 1;
   234d8:	00800134 	movhi	r2,4
   234dc:	10a3ba84 	addi	r2,r2,-28950
   234e0:	00c00044 	movi	r3,1
   234e4:	10c00005 	stb	r3,0(r2)
   234e8:	00003406 	br	235bc <main+0x3bc>
        }else if(prompt=='R'){
   234ec:	00800134 	movhi	r2,4
   234f0:	10a3c884 	addi	r2,r2,-28894
   234f4:	10800003 	ldbu	r2,0(r2)
   234f8:	10803fcc 	andi	r2,r2,255
   234fc:	10801498 	cmpnei	r2,r2,82
   23500:	1000101e 	bne	r2,zero,23544 <main+0x344>
          Focus_Window(320,240);
   23504:	01403c04 	movi	r5,240
   23508:	01005004 	movi	r4,320
   2350c:	00211680 	call	21168 <Focus_Window>
          moving=0;
   23510:	d028d7c5 	stb	zero,-23713(gp)
          last_command='c';
   23514:	008018c4 	movi	r2,99
   23518:	d0a00545 	stb	r2,-32747(gp)
          last_colour='U';
   2351c:	00801544 	movi	r2,85
   23520:	d0a00585 	stb	r2,-32746(gp)
          ack=0;
   23524:	d028d805 	stb	zero,-23712(gp)
          stop_ticks=0;
   23528:	d028d845 	stb	zero,-23711(gp)
          acc_ticks=0;
   2352c:	d028d885 	stb	zero,-23710(gp)
          mem_ticks=0;
   23530:	d028d90d 	sth	zero,-23708(gp)
          ball_sent.used=0;
   23534:	00800134 	movhi	r2,4
   23538:	10a3f404 	addi	r2,r2,-28720
   2353c:	10000115 	stw	zero,4(r2)
   23540:	00001e06 	br	235bc <main+0x3bc>
        }else if(prompt=='C'){
   23544:	00800134 	movhi	r2,4
   23548:	10a3c884 	addi	r2,r2,-28894
   2354c:	10800003 	ldbu	r2,0(r2)
   23550:	10803fcc 	andi	r2,r2,255
   23554:	108010d8 	cmpnei	r2,r2,67
   23558:	1000181e 	bne	r2,zero,235bc <main+0x3bc>
          gain_calib = 0;
   2355c:	d028d705 	stb	zero,-23716(gp)
          acc_calib  = 0;
   23560:	d028d785 	stb	zero,-23714(gp)
          gain       = 0x7FF;
   23564:	0081ffc4 	movi	r2,2047
   23568:	d0a0030d 	sth	r2,-32756(gp)
          exposure   = 0x2000;
   2356c:	00880004 	movi	r2,8192
   23570:	d0a00415 	stw	r2,-32752(gp)

          OV8865SetGain(gain);
   23574:	d0a0030b 	ldhu	r2,-32756(gp)
   23578:	10bfffcc 	andi	r2,r2,65535
   2357c:	1009883a 	mov	r4,r2
   23580:	0023bac0 	call	23bac <OV8865SetGain>
          OV8865SetExposure(exposure);
   23584:	d0a00417 	ldw	r2,-32752(gp)
   23588:	1009883a 	mov	r4,r2
   2358c:	0023acc0 	call	23acc <OV8865SetExposure>

          #ifdef VIEW_AUTO_GAIN
            printf("\nGain = %x\n", gain);
   23590:	d0a0030b 	ldhu	r2,-32756(gp)
   23594:	10bfffcc 	andi	r2,r2,65535
   23598:	100b883a 	mov	r5,r2
   2359c:	010000f4 	movhi	r4,3
   235a0:	2110c904 	addi	r4,r4,17188
   235a4:	0024edc0 	call	24edc <printf>
            printf("Exposure = %x\n", exposure);
   235a8:	d0a00417 	ldw	r2,-32752(gp)
   235ac:	100b883a 	mov	r5,r2
   235b0:	010000f4 	movhi	r4,3
   235b4:	2110cc04 	addi	r4,r4,17200
   235b8:	0024edc0 	call	24edc <printf>
          ack = 0;
          stop_reasoned = 1;
        }*/

        #ifdef VIEW_UART_MSGS
          printf("UART received: %c\n", prompt);
   235bc:	00800134 	movhi	r2,4
   235c0:	10a3c884 	addi	r2,r2,-28894
   235c4:	10800003 	ldbu	r2,0(r2)
   235c8:	10803fcc 	andi	r2,r2,255
   235cc:	100b883a 	mov	r5,r2
   235d0:	010000f4 	movhi	r4,3
   235d4:	21112104 	addi	r4,r4,17540
   235d8:	0024edc0 	call	24edc <printf>
        #endif
      }
    }
  }
   235dc:	003f8306 	br	233ec <__alt_data_end+0xfffe3fec>

000235e0 <nSWAP16>:
	{0x0004,0x8047} // Configuration Control Register

};


alt_u16 nSWAP16(alt_u16 x){
   235e0:	defffd04 	addi	sp,sp,-12
   235e4:	df000215 	stw	fp,8(sp)
   235e8:	df000204 	addi	fp,sp,8
   235ec:	2005883a 	mov	r2,r4
   235f0:	e0bfff0d 	sth	r2,-4(fp)
	alt_u16 y;
	//y =  (((x) >> 8) & 0xff) | (((x) & 0xff) << 8);

//	y = x;
	y = (x >> 8) & 0x00ff;
   235f4:	e0bfff0b 	ldhu	r2,-4(fp)
   235f8:	1004d23a 	srli	r2,r2,8
   235fc:	e0bffe0d 	sth	r2,-8(fp)
	y |= (x << 8) & 0xff00;
   23600:	e0bfff0b 	ldhu	r2,-4(fp)
   23604:	1004923a 	slli	r2,r2,8
   23608:	1007883a 	mov	r3,r2
   2360c:	e0bffe0b 	ldhu	r2,-8(fp)
   23610:	1884b03a 	or	r2,r3,r2
   23614:	e0bffe0d 	sth	r2,-8(fp)
	return y;
   23618:	e0bffe0b 	ldhu	r2,-8(fp)
}
   2361c:	e037883a 	mov	sp,fp
   23620:	df000017 	ldw	fp,0(sp)
   23624:	dec00104 	addi	sp,sp,4
   23628:	f800283a 	ret

0002362c <MipiBridgeRegWrite>:


void MipiBridgeRegWrite(alt_u16 Addr, alt_u16 Value){
   2362c:	defffa04 	addi	sp,sp,-24
   23630:	dfc00515 	stw	ra,20(sp)
   23634:	df000415 	stw	fp,16(sp)
   23638:	df000404 	addi	fp,sp,16
   2363c:	2007883a 	mov	r3,r4
   23640:	2805883a 	mov	r2,r5
   23644:	e0fffe0d 	sth	r3,-8(fp)
   23648:	e0bfff0d 	sth	r2,-4(fp)
	const alt_u8 device_address = MIPI_BRIDGE_I2C_ADDR;
   2364c:	00800704 	movi	r2,28
   23650:	e0bffd05 	stb	r2,-12(fp)
	OC_I2CL_Write(I2C_OPENCORES_MIPI_BASE, device_address, Addr, (alt_u8 *)&Value, sizeof(Value));
   23654:	e0fffd03 	ldbu	r3,-12(fp)
   23658:	e13ffe0b 	ldhu	r4,-8(fp)
   2365c:	e17fff04 	addi	r5,fp,-4
   23660:	00800084 	movi	r2,2
   23664:	d8800015 	stw	r2,0(sp)
   23668:	280f883a 	mov	r7,r5
   2366c:	200d883a 	mov	r6,r4
   23670:	180b883a 	mov	r5,r3
   23674:	01000134 	movhi	r4,4
   23678:	21042004 	addi	r4,r4,4224
   2367c:	0020bb00 	call	20bb0 <OC_I2CL_Write>
}
   23680:	0001883a 	nop
   23684:	e037883a 	mov	sp,fp
   23688:	dfc00117 	ldw	ra,4(sp)
   2368c:	df000017 	ldw	fp,0(sp)
   23690:	dec00204 	addi	sp,sp,8
   23694:	f800283a 	ret

00023698 <MipiBridgeRegRead>:

alt_u16 MipiBridgeRegRead(alt_u16 Addr){
   23698:	defffa04 	addi	sp,sp,-24
   2369c:	dfc00515 	stw	ra,20(sp)
   236a0:	df000415 	stw	fp,16(sp)
   236a4:	df000404 	addi	fp,sp,16
   236a8:	2005883a 	mov	r2,r4
   236ac:	e0bfff0d 	sth	r2,-4(fp)
	alt_u16 Value,tValue;
	const alt_u8 device_address = MIPI_BRIDGE_I2C_ADDR;
   236b0:	00800704 	movi	r2,28
   236b4:	e0bffd05 	stb	r2,-12(fp)

	OC_I2CL_Read(I2C_OPENCORES_MIPI_BASE,device_address, Addr,(alt_u8 *)&Value,sizeof(Value));
   236b8:	e0fffd03 	ldbu	r3,-12(fp)
   236bc:	e13fff0b 	ldhu	r4,-4(fp)
   236c0:	e17ffe04 	addi	r5,fp,-8
   236c4:	00800084 	movi	r2,2
   236c8:	d8800015 	stw	r2,0(sp)
   236cc:	280f883a 	mov	r7,r5
   236d0:	200d883a 	mov	r6,r4
   236d4:	180b883a 	mov	r5,r3
   236d8:	01000134 	movhi	r4,4
   236dc:	21042004 	addi	r4,r4,4224
   236e0:	0020dc00 	call	20dc0 <OC_I2CL_Read>

	tValue = nSWAP16(Value);
   236e4:	e0bffe0b 	ldhu	r2,-8(fp)
   236e8:	10bfffcc 	andi	r2,r2,65535
   236ec:	1009883a 	mov	r4,r2
   236f0:	00235e00 	call	235e0 <nSWAP16>
   236f4:	e0bffd8d 	sth	r2,-10(fp)

	return (tValue);
   236f8:	e0bffd8b 	ldhu	r2,-10(fp)
}
   236fc:	e037883a 	mov	sp,fp
   23700:	dfc00117 	ldw	ra,4(sp)
   23704:	df000017 	ldw	fp,0(sp)
   23708:	dec00204 	addi	sp,sp,8
   2370c:	f800283a 	ret

00023710 <MipiBridgeInit>:




void MipiBridgeInit(void){
   23710:	defffb04 	addi	sp,sp,-20
   23714:	dfc00415 	stw	ra,16(sp)
   23718:	df000315 	stw	fp,12(sp)
   2371c:	df000304 	addi	fp,sp,12

	alt_u16 data;
    int i, num;

	printf("\nStart MipiBridgeInit!\n");
   23720:	010000f4 	movhi	r4,3
   23724:	21112604 	addi	r4,r4,17560
   23728:	0024fd80 	call	24fd8 <puts>

	data = MipiBridgeRegRead(0x0000); // read chip and revision id;
   2372c:	0009883a 	mov	r4,zero
   23730:	00236980 	call	23698 <MipiBridgeRegRead>
   23734:	e0bffe0d 	sth	r2,-8(fp)

	printf("Chip and Revision ID is 0x%04xh(expected: 0x4401);\n",data);
   23738:	e0bffe0b 	ldhu	r2,-8(fp)
   2373c:	100b883a 	mov	r5,r2
   23740:	010000f4 	movhi	r4,3
   23744:	21112c04 	addi	r4,r4,17584
   23748:	0024edc0 	call	24edc <printf>


    num = sizeof(MipiBridgeReg)/sizeof(MipiBridgeReg[0]);
   2374c:	00800344 	movi	r2,13
   23750:	e0bfff15 	stw	r2,-4(fp)

    for(i=0;i<num;i++){
   23754:	e03ffd15 	stw	zero,-12(fp)
   23758:	00002d06 	br	23810 <MipiBridgeInit+0x100>
   	 if (MipiBridgeReg[i].Addr == 0xFFFF)   usleep(MipiBridgeReg[i].Data*1000);
   2375c:	008000f4 	movhi	r2,3
   23760:	10922f04 	addi	r2,r2,18620
   23764:	e0fffd17 	ldw	r3,-12(fp)
   23768:	18c7883a 	add	r3,r3,r3
   2376c:	18c7883a 	add	r3,r3,r3
   23770:	10c5883a 	add	r2,r2,r3
   23774:	1080000b 	ldhu	r2,0(r2)
   23778:	10ffffcc 	andi	r3,r2,65535
   2377c:	00bfffd4 	movui	r2,65535
   23780:	18800d1e 	bne	r3,r2,237b8 <MipiBridgeInit+0xa8>
   23784:	008000f4 	movhi	r2,3
   23788:	10922f04 	addi	r2,r2,18620
   2378c:	e0fffd17 	ldw	r3,-12(fp)
   23790:	18c7883a 	add	r3,r3,r3
   23794:	18c7883a 	add	r3,r3,r3
   23798:	10c5883a 	add	r2,r2,r3
   2379c:	10800084 	addi	r2,r2,2
   237a0:	1080000b 	ldhu	r2,0(r2)
   237a4:	10bfffcc 	andi	r2,r2,65535
   237a8:	1080fa24 	muli	r2,r2,1000
   237ac:	1009883a 	mov	r4,r2
   237b0:	0031a340 	call	31a34 <usleep>
   237b4:	00001306 	br	23804 <MipiBridgeInit+0xf4>
        else MipiBridgeRegWrite(MipiBridgeReg[i].Addr,  MipiBridgeReg[i].Data);
   237b8:	008000f4 	movhi	r2,3
   237bc:	10922f04 	addi	r2,r2,18620
   237c0:	e0fffd17 	ldw	r3,-12(fp)
   237c4:	18c7883a 	add	r3,r3,r3
   237c8:	18c7883a 	add	r3,r3,r3
   237cc:	10c5883a 	add	r2,r2,r3
   237d0:	1080000b 	ldhu	r2,0(r2)
   237d4:	113fffcc 	andi	r4,r2,65535
   237d8:	008000f4 	movhi	r2,3
   237dc:	10922f04 	addi	r2,r2,18620
   237e0:	e0fffd17 	ldw	r3,-12(fp)
   237e4:	18c7883a 	add	r3,r3,r3
   237e8:	18c7883a 	add	r3,r3,r3
   237ec:	10c5883a 	add	r2,r2,r3
   237f0:	10800084 	addi	r2,r2,2
   237f4:	1080000b 	ldhu	r2,0(r2)
   237f8:	10bfffcc 	andi	r2,r2,65535
   237fc:	100b883a 	mov	r5,r2
   23800:	002362c0 	call	2362c <MipiBridgeRegWrite>
	printf("Chip and Revision ID is 0x%04xh(expected: 0x4401);\n",data);


    num = sizeof(MipiBridgeReg)/sizeof(MipiBridgeReg[0]);

    for(i=0;i<num;i++){
   23804:	e0bffd17 	ldw	r2,-12(fp)
   23808:	10800044 	addi	r2,r2,1
   2380c:	e0bffd15 	stw	r2,-12(fp)
   23810:	e0fffd17 	ldw	r3,-12(fp)
   23814:	e0bfff17 	ldw	r2,-4(fp)
   23818:	18bfd016 	blt	r3,r2,2375c <__alt_data_end+0xfffe435c>
//     MipiBridgeRegWrite(0x005A,((cap<<6) + (HsRxRs<<4) + ClkDly_data));
//     MipiBridgeRegWrite(0x005C,((cap<<6) + (HsRxRs<<4) + ClkDly_data));
//     MipiBridgeRegWrite(0x005E,((cap<<6) + (HsRxRs<<4) + ClkDly_data));
//

    printf("End MipiBridgeInit!\n\n");
   2381c:	010000f4 	movhi	r4,3
   23820:	21113904 	addi	r4,r4,17636
   23824:	0024fd80 	call	24fd8 <puts>

}
   23828:	0001883a 	nop
   2382c:	e037883a 	mov	sp,fp
   23830:	dfc00117 	ldw	ra,4(sp)
   23834:	df000017 	ldw	fp,0(sp)
   23838:	dec00204 	addi	sp,sp,8
   2383c:	f800283a 	ret

00023840 <OV8865_read_cmos_sensor_8>:
   };




alt_u8 OV8865_read_cmos_sensor_8(alt_u16 Addr){
   23840:	defffb04 	addi	sp,sp,-20
   23844:	dfc00415 	stw	ra,16(sp)
   23848:	df000315 	stw	fp,12(sp)
   2384c:	df000304 	addi	fp,sp,12
   23850:	2005883a 	mov	r2,r4
   23854:	e0bfff0d 	sth	r2,-4(fp)
	const alt_u8 device_address = MIPI_I2C_ADDR;
   23858:	00801b04 	movi	r2,108
   2385c:	e0bffe05 	stb	r2,-8(fp)
	alt_u8 Value;

	//OC_I2CL_Write(I2C_OPENCORES_CAMERA_BASE, device_address, SWAP16(Addr), (alt_u8 *)&Value, sizeof(Value));
	OC_I2CL_Read(I2C_OPENCORES_CAMERA_BASE, device_address, Addr, (alt_u8 *)&Value, sizeof(Value));
   23860:	e0fffe03 	ldbu	r3,-8(fp)
   23864:	e13fff0b 	ldhu	r4,-4(fp)
   23868:	e17ffe44 	addi	r5,fp,-7
   2386c:	00800044 	movi	r2,1
   23870:	d8800015 	stw	r2,0(sp)
   23874:	280f883a 	mov	r7,r5
   23878:	200d883a 	mov	r6,r4
   2387c:	180b883a 	mov	r5,r3
   23880:	01000134 	movhi	r4,4
   23884:	21041804 	addi	r4,r4,4192
   23888:	0020dc00 	call	20dc0 <OC_I2CL_Read>

	return (Value);
   2388c:	e0bffe43 	ldbu	r2,-7(fp)
}
   23890:	e037883a 	mov	sp,fp
   23894:	dfc00117 	ldw	ra,4(sp)
   23898:	df000017 	ldw	fp,0(sp)
   2389c:	dec00204 	addi	sp,sp,8
   238a0:	f800283a 	ret

000238a4 <OV8865_write_cmos_sensor_8>:


void OV8865_write_cmos_sensor_8(alt_u16 Addr, alt_u8 Value){
   238a4:	defffa04 	addi	sp,sp,-24
   238a8:	dfc00515 	stw	ra,20(sp)
   238ac:	df000415 	stw	fp,16(sp)
   238b0:	df000404 	addi	fp,sp,16
   238b4:	2007883a 	mov	r3,r4
   238b8:	2805883a 	mov	r2,r5
   238bc:	e0fffe0d 	sth	r3,-8(fp)
   238c0:	e0bfff05 	stb	r2,-4(fp)
	const alt_u8 device_address = MIPI_I2C_ADDR;
   238c4:	00801b04 	movi	r2,108
   238c8:	e0bffd05 	stb	r2,-12(fp)
	//OC_I2CL_Write(I2C_OPENCORES_CAMERA_BASE, device_address, SWAP16(Addr), (alt_u8 *)&Value, sizeof(Value));
	OC_I2CL_Write(I2C_OPENCORES_CAMERA_BASE, device_address, Addr, (alt_u8 *)&Value, sizeof(Value));
   238cc:	e0fffd03 	ldbu	r3,-12(fp)
   238d0:	e13ffe0b 	ldhu	r4,-8(fp)
   238d4:	e17fff04 	addi	r5,fp,-4
   238d8:	00800044 	movi	r2,1
   238dc:	d8800015 	stw	r2,0(sp)
   238e0:	280f883a 	mov	r7,r5
   238e4:	200d883a 	mov	r6,r4
   238e8:	180b883a 	mov	r5,r3
   238ec:	01000134 	movhi	r4,4
   238f0:	21041804 	addi	r4,r4,4192
   238f4:	0020bb00 	call	20bb0 <OC_I2CL_Write>
}
   238f8:	0001883a 	nop
   238fc:	e037883a 	mov	sp,fp
   23900:	dfc00117 	ldw	ra,4(sp)
   23904:	df000017 	ldw	fp,0(sp)
   23908:	dec00204 	addi	sp,sp,8
   2390c:	f800283a 	ret

00023910 <OV8865_write_AF>:


void OV8865_write_AF(alt_u8 msb, alt_u8 lsb){
   23910:	defffa04 	addi	sp,sp,-24
   23914:	dfc00515 	stw	ra,20(sp)
   23918:	df000415 	stw	fp,16(sp)
   2391c:	df000404 	addi	fp,sp,16
   23920:	2007883a 	mov	r3,r4
   23924:	2805883a 	mov	r2,r5
   23928:	e0fffe05 	stb	r3,-8(fp)
   2392c:	e0bfff05 	stb	r2,-4(fp)
	// VCM149C
	const alt_u8 device_address = MIPI_AF_I2C_ADDR;
   23930:	00800604 	movi	r2,24
   23934:	e0bffd05 	stb	r2,-12(fp)
	OC_I2C_Write(I2C_OPENCORES_CAMERA_BASE, device_address, msb, (alt_u8 *)&lsb, sizeof(lsb));
   23938:	e0fffd03 	ldbu	r3,-12(fp)
   2393c:	e13ffe03 	ldbu	r4,-8(fp)
   23940:	e17fff04 	addi	r5,fp,-4
   23944:	00800044 	movi	r2,1
   23948:	d8800015 	stw	r2,0(sp)
   2394c:	280f883a 	mov	r7,r5
   23950:	200d883a 	mov	r6,r4
   23954:	180b883a 	mov	r5,r3
   23958:	01000134 	movhi	r4,4
   2395c:	21041804 	addi	r4,r4,4192
   23960:	00206480 	call	20648 <OC_I2C_Write>
}
   23964:	0001883a 	nop
   23968:	e037883a 	mov	sp,fp
   2396c:	dfc00117 	ldw	ra,4(sp)
   23970:	df000017 	ldw	fp,0(sp)
   23974:	dec00204 	addi	sp,sp,8
   23978:	f800283a 	ret

0002397c <OV8865_read_AF>:

void OV8865_read_AF(void){
   2397c:	defffb04 	addi	sp,sp,-20
   23980:	dfc00415 	stw	ra,16(sp)
   23984:	df000315 	stw	fp,12(sp)
   23988:	df000304 	addi	fp,sp,12
	// VCM149C
	const alt_u8 device_address = MIPI_AF_I2C_ADDR;
   2398c:	00800604 	movi	r2,24
   23990:	e0bffd05 	stb	r2,-12(fp)
	alt_u8 szData8[2];
	bool bSuccess;

		bSuccess = OC_I2C_Read_Continue(I2C_OPENCORES_CAMERA_BASE, device_address, szData8, sizeof(szData8));
   23994:	e0bffd03 	ldbu	r2,-12(fp)
   23998:	e0ffff04 	addi	r3,fp,-4
   2399c:	01c00084 	movi	r7,2
   239a0:	180d883a 	mov	r6,r3
   239a4:	100b883a 	mov	r5,r2
   239a8:	01000134 	movhi	r4,4
   239ac:	21041804 	addi	r4,r4,4192
   239b0:	0020a780 	call	20a78 <OC_I2C_Read_Continue>
   239b4:	e0bffe15 	stw	r2,-8(fp)
		if (bSuccess)
   239b8:	e0bffe17 	ldw	r2,-8(fp)
   239bc:	10000926 	beq	r2,zero,239e4 <OV8865_read_AF+0x68>
			printf("Read MSB=%xh, LSB=%xh\r\n", szData8[0], szData8[1]);
   239c0:	e0bfff03 	ldbu	r2,-4(fp)
   239c4:	10803fcc 	andi	r2,r2,255
   239c8:	e0ffff43 	ldbu	r3,-3(fp)
   239cc:	18c03fcc 	andi	r3,r3,255
   239d0:	180d883a 	mov	r6,r3
   239d4:	100b883a 	mov	r5,r2
   239d8:	010000f4 	movhi	r4,3
   239dc:	21113f04 	addi	r4,r4,17660
   239e0:	0024edc0 	call	24edc <printf>
}
   239e4:	0001883a 	nop
   239e8:	e037883a 	mov	sp,fp
   239ec:	dfc00117 	ldw	ra,4(sp)
   239f0:	df000017 	ldw	fp,0(sp)
   239f4:	dec00204 	addi	sp,sp,8
   239f8:	f800283a 	ret

000239fc <OV8865_FOCUS_Move_to>:

void OV8865_FOCUS_Move_to(alt_u16 a_u2MovePosition)
{
   239fc:	defffb04 	addi	sp,sp,-20
   23a00:	dfc00415 	stw	ra,16(sp)
   23a04:	df000315 	stw	fp,12(sp)
   23a08:	df000304 	addi	fp,sp,12
   23a0c:	2005883a 	mov	r2,r4
   23a10:	e0bfff0d 	sth	r2,-4(fp)
  if (a_u2MovePosition > 1023)   {a_u2MovePosition = 1023;}
   23a14:	e0bfff0b 	ldhu	r2,-4(fp)
   23a18:	10810030 	cmpltui	r2,r2,1024
   23a1c:	1000021e 	bne	r2,zero,23a28 <OV8865_FOCUS_Move_to+0x2c>
   23a20:	0080ffc4 	movi	r2,1023
   23a24:	e0bfff0d 	sth	r2,-4(fp)
  if (a_u2MovePosition < 0)     {a_u2MovePosition = 0;}
  int bSuccess;

  Focus_Released(); // waiting for VCM release I2C bus
   23a28:	00213480 	call	21348 <Focus_Released>

	bSuccess = oc_i2c_init_ex(I2C_OPENCORES_CAMERA_BASE, 50*1000*1000,400*1000); //I2C: 400K
   23a2c:	018001b4 	movhi	r6,6
   23a30:	3186a004 	addi	r6,r6,6784
   23a34:	0140bef4 	movhi	r5,763
   23a38:	297c2004 	addi	r5,r5,-3968
   23a3c:	01000134 	movhi	r4,4
   23a40:	21041804 	addi	r4,r4,4192
   23a44:	002039c0 	call	2039c <oc_i2c_init_ex>
   23a48:	e0bffd15 	stw	r2,-12(fp)
	if (!bSuccess)
   23a4c:	e0bffd17 	ldw	r2,-12(fp)
   23a50:	1000031e 	bne	r2,zero,23a60 <OV8865_FOCUS_Move_to+0x64>
		printf("failed to init MIPI- Camera i2c\r\n");
   23a54:	010000f4 	movhi	r4,3
   23a58:	21114504 	addi	r4,r4,17684
   23a5c:	0024fd80 	call	24fd8 <puts>

	//printf("Manual set focus to %d\r\n",a_u2MovePosition);
  alt_u8 msb,lsb;
  msb = (a_u2MovePosition >> 4)&0x00FF;
   23a60:	e0bfff0b 	ldhu	r2,-4(fp)
   23a64:	1004d13a 	srli	r2,r2,4
   23a68:	e0bffe05 	stb	r2,-8(fp)
  lsb = (a_u2MovePosition << 4 )&0x00F0;
   23a6c:	e0bfff0b 	ldhu	r2,-4(fp)
   23a70:	1004913a 	slli	r2,r2,4
   23a74:	e0bffe45 	stb	r2,-7(fp)
  lsb += 0x06;
   23a78:	e0bffe43 	ldbu	r2,-7(fp)
   23a7c:	10800184 	addi	r2,r2,6
   23a80:	e0bffe45 	stb	r2,-7(fp)
//	printf("Write MSB=%xh, LSB=%xh\r\n", msb, lsb);
	OV8865_write_AF(msb, lsb+0x6);
   23a84:	e0fffe03 	ldbu	r3,-8(fp)
   23a88:	e0bffe43 	ldbu	r2,-7(fp)
   23a8c:	10800184 	addi	r2,r2,6
   23a90:	10803fcc 	andi	r2,r2,255
   23a94:	100b883a 	mov	r5,r2
   23a98:	1809883a 	mov	r4,r3
   23a9c:	00239100 	call	23910 <OV8865_write_AF>
	usleep(1000);
   23aa0:	0100fa04 	movi	r4,1000
   23aa4:	0031a340 	call	31a34 <usleep>
//	OV8865_read_AF();

	oc_i2c_uninit(I2C_OPENCORES_CAMERA_BASE);  // Release I2C bus , due to two I2C master shared!
   23aa8:	01000134 	movhi	r4,4
   23aac:	21041804 	addi	r4,r4,4192
   23ab0:	00204d80 	call	204d8 <oc_i2c_uninit>

}
   23ab4:	0001883a 	nop
   23ab8:	e037883a 	mov	sp,fp
   23abc:	dfc00117 	ldw	ra,4(sp)
   23ac0:	df000017 	ldw	fp,0(sp)
   23ac4:	dec00204 	addi	sp,sp,8
   23ac8:	f800283a 	ret

00023acc <OV8865SetExposure>:

void OV8865SetExposure(alt_u32 exposure){
   23acc:	defffc04 	addi	sp,sp,-16
   23ad0:	dfc00315 	stw	ra,12(sp)
   23ad4:	df000215 	stw	fp,8(sp)
   23ad8:	df000204 	addi	fp,sp,8
   23adc:	e13fff15 	stw	r4,-4(fp)

	Focus_Released(); // waiting for VCM release I2C bus
   23ae0:	00213480 	call	21348 <Focus_Released>

	int bSuccess = oc_i2c_init_ex(I2C_OPENCORES_CAMERA_BASE, 50*1000*1000,400*1000); //I2C: 400K
   23ae4:	018001b4 	movhi	r6,6
   23ae8:	3186a004 	addi	r6,r6,6784
   23aec:	0140bef4 	movhi	r5,763
   23af0:	297c2004 	addi	r5,r5,-3968
   23af4:	01000134 	movhi	r4,4
   23af8:	21041804 	addi	r4,r4,4192
   23afc:	002039c0 	call	2039c <oc_i2c_init_ex>
   23b00:	e0bffe15 	stw	r2,-8(fp)
	if (!bSuccess)
   23b04:	e0bffe17 	ldw	r2,-8(fp)
   23b08:	1000031e 	bne	r2,zero,23b18 <OV8865SetExposure+0x4c>
		printf("failed to init MIPI- Camera i2c\r\n");
   23b0c:	010000f4 	movhi	r4,3
   23b10:	21114504 	addi	r4,r4,17684
   23b14:	0024fd80 	call	24fd8 <puts>

	if (exposure > 0xFFFFF) exposure = 0xFFFFF;
   23b18:	e0ffff17 	ldw	r3,-4(fp)
   23b1c:	00800434 	movhi	r2,16
   23b20:	18800336 	bltu	r3,r2,23b30 <OV8865SetExposure+0x64>
   23b24:	00800434 	movhi	r2,16
   23b28:	10bfffc4 	addi	r2,r2,-1
   23b2c:	e0bfff15 	stw	r2,-4(fp)
	if (exposure < 0x20) exposure = 0x20;
   23b30:	e0bfff17 	ldw	r2,-4(fp)
   23b34:	10800828 	cmpgeui	r2,r2,32
   23b38:	1000021e 	bne	r2,zero,23b44 <OV8865SetExposure+0x78>
   23b3c:	00800804 	movi	r2,32
   23b40:	e0bfff15 	stw	r2,-4(fp)

	OV8865_write_cmos_sensor_8(0x3500, (exposure >> 16) & 0x0F);
   23b44:	e0bfff17 	ldw	r2,-4(fp)
   23b48:	1004d43a 	srli	r2,r2,16
   23b4c:	108003cc 	andi	r2,r2,15
   23b50:	100b883a 	mov	r5,r2
   23b54:	010d4004 	movi	r4,13568
   23b58:	00238a40 	call	238a4 <OV8865_write_cmos_sensor_8>
	OV8865_write_cmos_sensor_8(0x3501, (exposure >> 8) & 0xFF);
   23b5c:	e0bfff17 	ldw	r2,-4(fp)
   23b60:	1004d23a 	srli	r2,r2,8
   23b64:	10803fcc 	andi	r2,r2,255
   23b68:	100b883a 	mov	r5,r2
   23b6c:	010d4044 	movi	r4,13569
   23b70:	00238a40 	call	238a4 <OV8865_write_cmos_sensor_8>
	OV8865_write_cmos_sensor_8(0x3502, exposure & 0xFF);
   23b74:	e0bfff17 	ldw	r2,-4(fp)
   23b78:	10803fcc 	andi	r2,r2,255
   23b7c:	100b883a 	mov	r5,r2
   23b80:	010d4084 	movi	r4,13570
   23b84:	00238a40 	call	238a4 <OV8865_write_cmos_sensor_8>


	oc_i2c_uninit(I2C_OPENCORES_CAMERA_BASE);
   23b88:	01000134 	movhi	r4,4
   23b8c:	21041804 	addi	r4,r4,4192
   23b90:	00204d80 	call	204d8 <oc_i2c_uninit>
}
   23b94:	0001883a 	nop
   23b98:	e037883a 	mov	sp,fp
   23b9c:	dfc00117 	ldw	ra,4(sp)
   23ba0:	df000017 	ldw	fp,0(sp)
   23ba4:	dec00204 	addi	sp,sp,8
   23ba8:	f800283a 	ret

00023bac <OV8865SetGain>:

void OV8865SetGain(alt_u16 gain){
   23bac:	defffc04 	addi	sp,sp,-16
   23bb0:	dfc00315 	stw	ra,12(sp)
   23bb4:	df000215 	stw	fp,8(sp)
   23bb8:	df000204 	addi	fp,sp,8
   23bbc:	2005883a 	mov	r2,r4
   23bc0:	e0bfff0d 	sth	r2,-4(fp)

	Focus_Released(); // waiting for VCM release I2C bus
   23bc4:	00213480 	call	21348 <Focus_Released>

	int bSuccess = oc_i2c_init_ex(I2C_OPENCORES_CAMERA_BASE, 50*1000*1000,400*1000); //I2C: 400K
   23bc8:	018001b4 	movhi	r6,6
   23bcc:	3186a004 	addi	r6,r6,6784
   23bd0:	0140bef4 	movhi	r5,763
   23bd4:	297c2004 	addi	r5,r5,-3968
   23bd8:	01000134 	movhi	r4,4
   23bdc:	21041804 	addi	r4,r4,4192
   23be0:	002039c0 	call	2039c <oc_i2c_init_ex>
   23be4:	e0bffe15 	stw	r2,-8(fp)
	if (!bSuccess)
   23be8:	e0bffe17 	ldw	r2,-8(fp)
   23bec:	1000031e 	bne	r2,zero,23bfc <OV8865SetGain+0x50>
		printf("failed to init MIPI- Camera i2c\r\n");
   23bf0:	010000f4 	movhi	r4,3
   23bf4:	21114504 	addi	r4,r4,17684
   23bf8:	0024fd80 	call	24fd8 <puts>

	if (gain > 0x7FF) gain = 0x7FF;
   23bfc:	e0bfff0b 	ldhu	r2,-4(fp)
   23c00:	10820030 	cmpltui	r2,r2,2048
   23c04:	1000021e 	bne	r2,zero,23c10 <OV8865SetGain+0x64>
   23c08:	0081ffc4 	movi	r2,2047
   23c0c:	e0bfff0d 	sth	r2,-4(fp)
	if (gain < 0x080) gain = 0x080;
   23c10:	e0bfff0b 	ldhu	r2,-4(fp)
   23c14:	10802028 	cmpgeui	r2,r2,128
   23c18:	1000021e 	bne	r2,zero,23c24 <OV8865SetGain+0x78>
   23c1c:	00802004 	movi	r2,128
   23c20:	e0bfff0d 	sth	r2,-4(fp)

	OV8865_write_cmos_sensor_8(0x3508, (gain >> 8) & 0x0F);
   23c24:	e0bfff0b 	ldhu	r2,-4(fp)
   23c28:	1004d23a 	srli	r2,r2,8
   23c2c:	10803fcc 	andi	r2,r2,255
   23c30:	108003cc 	andi	r2,r2,15
   23c34:	100b883a 	mov	r5,r2
   23c38:	010d4204 	movi	r4,13576
   23c3c:	00238a40 	call	238a4 <OV8865_write_cmos_sensor_8>
	OV8865_write_cmos_sensor_8(0x3509, gain & 0xFF);
   23c40:	e0bfff0b 	ldhu	r2,-4(fp)
   23c44:	10803fcc 	andi	r2,r2,255
   23c48:	100b883a 	mov	r5,r2
   23c4c:	010d4244 	movi	r4,13577
   23c50:	00238a40 	call	238a4 <OV8865_write_cmos_sensor_8>


	oc_i2c_uninit(I2C_OPENCORES_CAMERA_BASE);
   23c54:	01000134 	movhi	r4,4
   23c58:	21041804 	addi	r4,r4,4192
   23c5c:	00204d80 	call	204d8 <oc_i2c_uninit>
}
   23c60:	0001883a 	nop
   23c64:	e037883a 	mov	sp,fp
   23c68:	dfc00117 	ldw	ra,4(sp)
   23c6c:	df000017 	ldw	fp,0(sp)
   23c70:	dec00204 	addi	sp,sp,8
   23c74:	f800283a 	ret

00023c78 <OV8865ReadExposure>:

alt_u32 OV8865ReadExposure(){
   23c78:	defffb04 	addi	sp,sp,-20
   23c7c:	dfc00415 	stw	ra,16(sp)
   23c80:	df000315 	stw	fp,12(sp)
   23c84:	dc000215 	stw	r16,8(sp)
   23c88:	df000304 	addi	fp,sp,12

	alt_u32 exposure;

	Focus_Released(); // waiting for VCM release I2C bus
   23c8c:	00213480 	call	21348 <Focus_Released>

	int bSuccess = oc_i2c_init_ex(I2C_OPENCORES_CAMERA_BASE, 50*1000*1000,400*1000); //I2C: 400K
   23c90:	018001b4 	movhi	r6,6
   23c94:	3186a004 	addi	r6,r6,6784
   23c98:	0140bef4 	movhi	r5,763
   23c9c:	297c2004 	addi	r5,r5,-3968
   23ca0:	01000134 	movhi	r4,4
   23ca4:	21041804 	addi	r4,r4,4192
   23ca8:	002039c0 	call	2039c <oc_i2c_init_ex>
   23cac:	e0bffd15 	stw	r2,-12(fp)
	if (!bSuccess)
   23cb0:	e0bffd17 	ldw	r2,-12(fp)
   23cb4:	1000031e 	bne	r2,zero,23cc4 <OV8865ReadExposure+0x4c>
		printf("failed to init MIPI- Camera i2c\r\n");
   23cb8:	010000f4 	movhi	r4,3
   23cbc:	21114504 	addi	r4,r4,17684
   23cc0:	0024fd80 	call	24fd8 <puts>

	exposure = OV8865_read_cmos_sensor_8(0x3500);
   23cc4:	010d4004 	movi	r4,13568
   23cc8:	00238400 	call	23840 <OV8865_read_cmos_sensor_8>
   23ccc:	10803fcc 	andi	r2,r2,255
   23cd0:	e0bffe15 	stw	r2,-8(fp)
	exposure = (exposure <<8) | OV8865_read_cmos_sensor_8(0x3501);
   23cd4:	e0bffe17 	ldw	r2,-8(fp)
   23cd8:	1020923a 	slli	r16,r2,8
   23cdc:	010d4044 	movi	r4,13569
   23ce0:	00238400 	call	23840 <OV8865_read_cmos_sensor_8>
   23ce4:	10803fcc 	andi	r2,r2,255
   23ce8:	8084b03a 	or	r2,r16,r2
   23cec:	e0bffe15 	stw	r2,-8(fp)
	exposure = (exposure <<8) | OV8865_read_cmos_sensor_8(0x3502);
   23cf0:	e0bffe17 	ldw	r2,-8(fp)
   23cf4:	1020923a 	slli	r16,r2,8
   23cf8:	010d4084 	movi	r4,13570
   23cfc:	00238400 	call	23840 <OV8865_read_cmos_sensor_8>
   23d00:	10803fcc 	andi	r2,r2,255
   23d04:	8084b03a 	or	r2,r16,r2
   23d08:	e0bffe15 	stw	r2,-8(fp)

	oc_i2c_uninit(I2C_OPENCORES_CAMERA_BASE);
   23d0c:	01000134 	movhi	r4,4
   23d10:	21041804 	addi	r4,r4,4192
   23d14:	00204d80 	call	204d8 <oc_i2c_uninit>

	return exposure;
   23d18:	e0bffe17 	ldw	r2,-8(fp)
}
   23d1c:	e6ffff04 	addi	sp,fp,-4
   23d20:	dfc00217 	ldw	ra,8(sp)
   23d24:	df000117 	ldw	fp,4(sp)
   23d28:	dc000017 	ldw	r16,0(sp)
   23d2c:	dec00304 	addi	sp,sp,12
   23d30:	f800283a 	ret

00023d34 <MIPI_BIN_LEVEL>:




//ZOOM
void MIPI_BIN_LEVEL(alt_u8 level){
   23d34:	defffc04 	addi	sp,sp,-16
   23d38:	dfc00315 	stw	ra,12(sp)
   23d3c:	df000215 	stw	fp,8(sp)
   23d40:	df000204 	addi	fp,sp,8
   23d44:	2005883a 	mov	r2,r4
   23d48:	e0bfff05 	stb	r2,-4(fp)
	if(level <= 1) level = 1;
   23d4c:	e0bfff03 	ldbu	r2,-4(fp)
   23d50:	108000a8 	cmpgeui	r2,r2,2
   23d54:	1000021e 	bne	r2,zero,23d60 <MIPI_BIN_LEVEL+0x2c>
   23d58:	00800044 	movi	r2,1
   23d5c:	e0bfff05 	stb	r2,-4(fp)
	if(level >= 3) level = 3;
   23d60:	e0bfff03 	ldbu	r2,-4(fp)
   23d64:	108000f0 	cmpltui	r2,r2,3
   23d68:	1000021e 	bne	r2,zero,23d74 <MIPI_BIN_LEVEL+0x40>
   23d6c:	008000c4 	movi	r2,3
   23d70:	e0bfff05 	stb	r2,-4(fp)

	  Focus_Released(); // waiting for VCM release I2C bus
   23d74:	00213480 	call	21348 <Focus_Released>

	  int bSuccess;
		bSuccess = oc_i2c_init_ex(I2C_OPENCORES_CAMERA_BASE, 50*1000*1000,400*1000); //I2C: 400K
   23d78:	018001b4 	movhi	r6,6
   23d7c:	3186a004 	addi	r6,r6,6784
   23d80:	0140bef4 	movhi	r5,763
   23d84:	297c2004 	addi	r5,r5,-3968
   23d88:	01000134 	movhi	r4,4
   23d8c:	21041804 	addi	r4,r4,4192
   23d90:	002039c0 	call	2039c <oc_i2c_init_ex>
   23d94:	e0bffe15 	stw	r2,-8(fp)
		if (!bSuccess)
   23d98:	e0bffe17 	ldw	r2,-8(fp)
   23d9c:	1000031e 	bne	r2,zero,23dac <MIPI_BIN_LEVEL+0x78>
			printf("failed to init MIPI- Camera i2c\r\n");
   23da0:	010000f4 	movhi	r4,3
   23da4:	21114504 	addi	r4,r4,17684
   23da8:	0024fd80 	call	24fd8 <puts>


	OV8865_write_cmos_sensor_8(0x0100, 0x00);
   23dac:	000b883a 	mov	r5,zero
   23db0:	01004004 	movi	r4,256
   23db4:	00238a40 	call	238a4 <OV8865_write_cmos_sensor_8>

	if(level == 1){
   23db8:	e0bfff03 	ldbu	r2,-4(fp)
   23dbc:	10800058 	cmpnei	r2,r2,1
   23dc0:	1000131e 	bne	r2,zero,23e10 <MIPI_BIN_LEVEL+0xdc>

		OV8865_write_cmos_sensor_8(0x3814, 0x01);
   23dc4:	01400044 	movi	r5,1
   23dc8:	010e0504 	movi	r4,14356
   23dcc:	00238a40 	call	238a4 <OV8865_write_cmos_sensor_8>
		OV8865_write_cmos_sensor_8(0x3815, 0x01);
   23dd0:	01400044 	movi	r5,1
   23dd4:	010e0544 	movi	r4,14357
   23dd8:	00238a40 	call	238a4 <OV8865_write_cmos_sensor_8>
		OV8865_write_cmos_sensor_8(0x382a, 0x01);
   23ddc:	01400044 	movi	r5,1
   23de0:	010e0a84 	movi	r4,14378
   23de4:	00238a40 	call	238a4 <OV8865_write_cmos_sensor_8>
		OV8865_write_cmos_sensor_8(0x382b, 0x01);
   23de8:	01400044 	movi	r5,1
   23dec:	010e0ac4 	movi	r4,14379
   23df0:	00238a40 	call	238a4 <OV8865_write_cmos_sensor_8>

		OV8865_write_cmos_sensor_8(0x3830, 8);
   23df4:	01400204 	movi	r5,8
   23df8:	010e0c04 	movi	r4,14384
   23dfc:	00238a40 	call	238a4 <OV8865_write_cmos_sensor_8>
		OV8865_write_cmos_sensor_8(0x3836, 2);
   23e00:	01400084 	movi	r5,2
   23e04:	010e0d84 	movi	r4,14390
   23e08:	00238a40 	call	238a4 <OV8865_write_cmos_sensor_8>
   23e0c:	00002b06 	br	23ebc <MIPI_BIN_LEVEL+0x188>
	}
	else if(level == 2){
   23e10:	e0bfff03 	ldbu	r2,-4(fp)
   23e14:	10800098 	cmpnei	r2,r2,2
   23e18:	1000131e 	bne	r2,zero,23e68 <MIPI_BIN_LEVEL+0x134>

		OV8865_write_cmos_sensor_8(0x3814, 0x03);
   23e1c:	014000c4 	movi	r5,3
   23e20:	010e0504 	movi	r4,14356
   23e24:	00238a40 	call	238a4 <OV8865_write_cmos_sensor_8>
		OV8865_write_cmos_sensor_8(0x3815, 0x01);
   23e28:	01400044 	movi	r5,1
   23e2c:	010e0544 	movi	r4,14357
   23e30:	00238a40 	call	238a4 <OV8865_write_cmos_sensor_8>
		OV8865_write_cmos_sensor_8(0x382a, 0x03);
   23e34:	014000c4 	movi	r5,3
   23e38:	010e0a84 	movi	r4,14378
   23e3c:	00238a40 	call	238a4 <OV8865_write_cmos_sensor_8>
		OV8865_write_cmos_sensor_8(0x382b, 0x01);
   23e40:	01400044 	movi	r5,1
   23e44:	010e0ac4 	movi	r4,14379
   23e48:	00238a40 	call	238a4 <OV8865_write_cmos_sensor_8>

		OV8865_write_cmos_sensor_8(0x3830, 4);
   23e4c:	01400104 	movi	r5,4
   23e50:	010e0c04 	movi	r4,14384
   23e54:	00238a40 	call	238a4 <OV8865_write_cmos_sensor_8>
		OV8865_write_cmos_sensor_8(0x3836, 1);
   23e58:	01400044 	movi	r5,1
   23e5c:	010e0d84 	movi	r4,14390
   23e60:	00238a40 	call	238a4 <OV8865_write_cmos_sensor_8>
   23e64:	00001506 	br	23ebc <MIPI_BIN_LEVEL+0x188>

	}
	else if(level == 3){
   23e68:	e0bfff03 	ldbu	r2,-4(fp)
   23e6c:	108000d8 	cmpnei	r2,r2,3
   23e70:	1000121e 	bne	r2,zero,23ebc <MIPI_BIN_LEVEL+0x188>

		OV8865_write_cmos_sensor_8(0x3814, 0x07);
   23e74:	014001c4 	movi	r5,7
   23e78:	010e0504 	movi	r4,14356
   23e7c:	00238a40 	call	238a4 <OV8865_write_cmos_sensor_8>
		OV8865_write_cmos_sensor_8(0x3815, 0x01);
   23e80:	01400044 	movi	r5,1
   23e84:	010e0544 	movi	r4,14357
   23e88:	00238a40 	call	238a4 <OV8865_write_cmos_sensor_8>
		OV8865_write_cmos_sensor_8(0x382a, 0x07);
   23e8c:	014001c4 	movi	r5,7
   23e90:	010e0a84 	movi	r4,14378
   23e94:	00238a40 	call	238a4 <OV8865_write_cmos_sensor_8>
		OV8865_write_cmos_sensor_8(0x382b, 0x01);
   23e98:	01400044 	movi	r5,1
   23e9c:	010e0ac4 	movi	r4,14379
   23ea0:	00238a40 	call	238a4 <OV8865_write_cmos_sensor_8>

		OV8865_write_cmos_sensor_8(0x3830, 8);
   23ea4:	01400204 	movi	r5,8
   23ea8:	010e0c04 	movi	r4,14384
   23eac:	00238a40 	call	238a4 <OV8865_write_cmos_sensor_8>
		OV8865_write_cmos_sensor_8(0x3836, 2);
   23eb0:	01400084 	movi	r5,2
   23eb4:	010e0d84 	movi	r4,14390
   23eb8:	00238a40 	call	238a4 <OV8865_write_cmos_sensor_8>
	}
    usleep(10000);
   23ebc:	0109c404 	movi	r4,10000
   23ec0:	0031a340 	call	31a34 <usleep>
	OV8865_write_cmos_sensor_8(0x0100, 0x01);
   23ec4:	01400044 	movi	r5,1
   23ec8:	01004004 	movi	r4,256
   23ecc:	00238a40 	call	238a4 <OV8865_write_cmos_sensor_8>

	oc_i2c_uninit(I2C_OPENCORES_CAMERA_BASE);  // Release I2C bus , due to two I2C master shared!
   23ed0:	01000134 	movhi	r4,4
   23ed4:	21041804 	addi	r4,r4,4192
   23ed8:	00204d80 	call	204d8 <oc_i2c_uninit>

}
   23edc:	0001883a 	nop
   23ee0:	e037883a 	mov	sp,fp
   23ee4:	dfc00117 	ldw	ra,4(sp)
   23ee8:	df000017 	ldw	fp,0(sp)
   23eec:	dec00204 	addi	sp,sp,8
   23ef0:	f800283a 	ret

00023ef4 <MipiCameraInit>:
//		OV8865_write_cmos_sensor_8(0x0100, 0x01);
//}


void MipiCameraInit(void)
{
   23ef4:	defffb04 	addi	sp,sp,-20
   23ef8:	dfc00415 	stw	ra,16(sp)
   23efc:	df000315 	stw	fp,12(sp)
   23f00:	df000304 	addi	fp,sp,12

    int i, num;
    int bSuccess;

    Focus_Released(); // waiting for VCM release I2C bus
   23f04:	00213480 	call	21348 <Focus_Released>


		bSuccess = oc_i2c_init_ex(I2C_OPENCORES_CAMERA_BASE, 50*1000*1000,400*1000); //I2C: 400K
   23f08:	018001b4 	movhi	r6,6
   23f0c:	3186a004 	addi	r6,r6,6784
   23f10:	0140bef4 	movhi	r5,763
   23f14:	297c2004 	addi	r5,r5,-3968
   23f18:	01000134 	movhi	r4,4
   23f1c:	21041804 	addi	r4,r4,4192
   23f20:	002039c0 	call	2039c <oc_i2c_init_ex>
   23f24:	e0bffe15 	stw	r2,-8(fp)
		if (!bSuccess)
   23f28:	e0bffe17 	ldw	r2,-8(fp)
   23f2c:	1000031e 	bne	r2,zero,23f3c <MipiCameraInit+0x48>
			printf("failed to init MIPI- Camera i2c\r\n");
   23f30:	010000f4 	movhi	r4,3
   23f34:	21114504 	addi	r4,r4,17684
   23f38:	0024fd80 	call	24fd8 <puts>
//        usleep(10000);
//    }
//


	 OV8865DB("\nStart MipiCameraInit -OV8865!\r\n");
   23f3c:	010000f4 	movhi	r4,3
   23f40:	21114e04 	addi	r4,r4,17720
   23f44:	0024fd80 	call	24fd8 <puts>
	 OV8865DB("Write Read Test!\n");
   23f48:	010000f4 	movhi	r4,3
   23f4c:	21115604 	addi	r4,r4,17752
   23f50:	0024fd80 	call	24fd8 <puts>

	    for(i=0;i<10;i++){
   23f54:	e03ffd15 	stw	zero,-12(fp)
   23f58:	00001406 	br	23fac <MipiCameraInit+0xb8>
	       OV8865_write_cmos_sensor_8(0x3809,i);
   23f5c:	e0bffd17 	ldw	r2,-12(fp)
   23f60:	10803fcc 	andi	r2,r2,255
   23f64:	100b883a 	mov	r5,r2
   23f68:	010e0244 	movi	r4,14345
   23f6c:	00238a40 	call	238a4 <OV8865_write_cmos_sensor_8>
	      usleep(100);
   23f70:	01001904 	movi	r4,100
   23f74:	0031a340 	call	31a34 <usleep>
	        printf("%d (%d)\n",OV8865_read_cmos_sensor_8(0x3809),i);
   23f78:	010e0244 	movi	r4,14345
   23f7c:	00238400 	call	23840 <OV8865_read_cmos_sensor_8>
   23f80:	10803fcc 	andi	r2,r2,255
   23f84:	e1bffd17 	ldw	r6,-12(fp)
   23f88:	100b883a 	mov	r5,r2
   23f8c:	010000f4 	movhi	r4,3
   23f90:	21115b04 	addi	r4,r4,17772
   23f94:	0024edc0 	call	24edc <printf>
	      usleep(100);
   23f98:	01001904 	movi	r4,100
   23f9c:	0031a340 	call	31a34 <usleep>


	 OV8865DB("\nStart MipiCameraInit -OV8865!\r\n");
	 OV8865DB("Write Read Test!\n");

	    for(i=0;i<10;i++){
   23fa0:	e0bffd17 	ldw	r2,-12(fp)
   23fa4:	10800044 	addi	r2,r2,1
   23fa8:	e0bffd15 	stw	r2,-12(fp)
   23fac:	e0bffd17 	ldw	r2,-12(fp)
   23fb0:	10800290 	cmplti	r2,r2,10
   23fb4:	103fe91e 	bne	r2,zero,23f5c <__alt_data_end+0xfffe4b5c>
	       OV8865_write_cmos_sensor_8(0x3809,i);
	      usleep(100);
	        printf("%d (%d)\n",OV8865_read_cmos_sensor_8(0x3809),i);
	      usleep(100);
	    }
	 num = sizeof(MipiCameraReg)/sizeof(MipiCameraReg[0]);
   23fb8:	00804f84 	movi	r2,318
   23fbc:	e0bfff15 	stw	r2,-4(fp)
     for(i=0;i<num;i++){
   23fc0:	e03ffd15 	stw	zero,-12(fp)
   23fc4:	00003c06 	br	240b8 <MipiCameraInit+0x1c4>

    	 if (MipiCameraReg[i].Type == TIME_DELAY)   usleep(MipiCameraReg[i].Data*100);
   23fc8:	008000f4 	movhi	r2,3
   23fcc:	10923c04 	addi	r2,r2,18672
   23fd0:	e0fffd17 	ldw	r3,-12(fp)
   23fd4:	18c001a4 	muli	r3,r3,6
   23fd8:	10c5883a 	add	r2,r2,r3
   23fdc:	10800003 	ldbu	r2,0(r2)
   23fe0:	10803fcc 	andi	r2,r2,255
   23fe4:	108000d8 	cmpnei	r2,r2,3
   23fe8:	10000c1e 	bne	r2,zero,2401c <MipiCameraInit+0x128>
   23fec:	008000f4 	movhi	r2,3
   23ff0:	10923c04 	addi	r2,r2,18672
   23ff4:	e0fffd17 	ldw	r3,-12(fp)
   23ff8:	18c001a4 	muli	r3,r3,6
   23ffc:	10c5883a 	add	r2,r2,r3
   24000:	10800104 	addi	r2,r2,4
   24004:	10800003 	ldbu	r2,0(r2)
   24008:	10803fcc 	andi	r2,r2,255
   2400c:	10801924 	muli	r2,r2,100
   24010:	1009883a 	mov	r4,r2
   24014:	0031a340 	call	31a34 <usleep>
   24018:	00002406 	br	240ac <MipiCameraInit+0x1b8>
    	 else if(MipiCameraReg[i].Type == END_OF_SCRIPT)   break;
   2401c:	008000f4 	movhi	r2,3
   24020:	10923c04 	addi	r2,r2,18672
   24024:	e0fffd17 	ldw	r3,-12(fp)
   24028:	18c001a4 	muli	r3,r3,6
   2402c:	10c5883a 	add	r2,r2,r3
   24030:	10800003 	ldbu	r2,0(r2)
   24034:	10803fcc 	andi	r2,r2,255
   24038:	10800118 	cmpnei	r2,r2,4
   2403c:	10002226 	beq	r2,zero,240c8 <MipiCameraInit+0x1d4>
    	 else if(MipiCameraReg[i].Type == 0x6c)   OV8865_write_cmos_sensor_8(MipiCameraReg[i].Addr, MipiCameraReg[i].Data);
   24040:	008000f4 	movhi	r2,3
   24044:	10923c04 	addi	r2,r2,18672
   24048:	e0fffd17 	ldw	r3,-12(fp)
   2404c:	18c001a4 	muli	r3,r3,6
   24050:	10c5883a 	add	r2,r2,r3
   24054:	10800003 	ldbu	r2,0(r2)
   24058:	10803fcc 	andi	r2,r2,255
   2405c:	10801b18 	cmpnei	r2,r2,108
   24060:	1000121e 	bne	r2,zero,240ac <MipiCameraInit+0x1b8>
   24064:	008000f4 	movhi	r2,3
   24068:	10923c04 	addi	r2,r2,18672
   2406c:	e0fffd17 	ldw	r3,-12(fp)
   24070:	18c001a4 	muli	r3,r3,6
   24074:	10c5883a 	add	r2,r2,r3
   24078:	10800084 	addi	r2,r2,2
   2407c:	1080000b 	ldhu	r2,0(r2)
   24080:	113fffcc 	andi	r4,r2,65535
   24084:	008000f4 	movhi	r2,3
   24088:	10923c04 	addi	r2,r2,18672
   2408c:	e0fffd17 	ldw	r3,-12(fp)
   24090:	18c001a4 	muli	r3,r3,6
   24094:	10c5883a 	add	r2,r2,r3
   24098:	10800104 	addi	r2,r2,4
   2409c:	10800003 	ldbu	r2,0(r2)
   240a0:	10803fcc 	andi	r2,r2,255
   240a4:	100b883a 	mov	r5,r2
   240a8:	00238a40 	call	238a4 <OV8865_write_cmos_sensor_8>
	      usleep(100);
	        printf("%d (%d)\n",OV8865_read_cmos_sensor_8(0x3809),i);
	      usleep(100);
	    }
	 num = sizeof(MipiCameraReg)/sizeof(MipiCameraReg[0]);
     for(i=0;i<num;i++){
   240ac:	e0bffd17 	ldw	r2,-12(fp)
   240b0:	10800044 	addi	r2,r2,1
   240b4:	e0bffd15 	stw	r2,-12(fp)
   240b8:	e0fffd17 	ldw	r3,-12(fp)
   240bc:	e0bfff17 	ldw	r2,-4(fp)
   240c0:	18bfc116 	blt	r3,r2,23fc8 <__alt_data_end+0xfffe4bc8>
   240c4:	00000106 	br	240cc <MipiCameraInit+0x1d8>

    	 if (MipiCameraReg[i].Type == TIME_DELAY)   usleep(MipiCameraReg[i].Data*100);
    	 else if(MipiCameraReg[i].Type == END_OF_SCRIPT)   break;
   240c8:	0001883a 	nop
    	 else if(MipiCameraReg[i].Type == 0x6c)   OV8865_write_cmos_sensor_8(MipiCameraReg[i].Addr, MipiCameraReg[i].Data);
     }


 	oc_i2c_uninit(I2C_OPENCORES_CAMERA_BASE);  // Release I2C bus , due to two I2C master shared!
   240cc:	01000134 	movhi	r4,4
   240d0:	21041804 	addi	r4,r4,4192
   240d4:	00204d80 	call	204d8 <oc_i2c_uninit>



	 OV8865DB("\nEnd MipiCameraInit! -OV8865!\r\n\n");
   240d8:	010000f4 	movhi	r4,3
   240dc:	21115e04 	addi	r4,r4,17784
   240e0:	0024fd80 	call	24fd8 <puts>

}
   240e4:	0001883a 	nop
   240e8:	e037883a 	mov	sp,fp
   240ec:	dfc00117 	ldw	ra,4(sp)
   240f0:	df000017 	ldw	fp,0(sp)
   240f4:	dec00204 	addi	sp,sp,8
   240f8:	f800283a 	ret

000240fc <QUEUE_New>:
#include "queue.h"




QUEUE_STRUCT* QUEUE_New(int nQueueNum){
   240fc:	defffb04 	addi	sp,sp,-20
   24100:	dfc00415 	stw	ra,16(sp)
   24104:	df000315 	stw	fp,12(sp)
   24108:	df000304 	addi	fp,sp,12
   2410c:	e13fff15 	stw	r4,-4(fp)
    int nSize;
    QUEUE_STRUCT *pQueue;
    nSize = sizeof(QUEUE_STRUCT)+nQueueNum*sizeof(alt_u32);
   24110:	e0bfff17 	ldw	r2,-4(fp)
   24114:	10800144 	addi	r2,r2,5
   24118:	1085883a 	add	r2,r2,r2
   2411c:	1085883a 	add	r2,r2,r2
   24120:	e0bffd15 	stw	r2,-12(fp)
    pQueue = (QUEUE_STRUCT *)malloc(nSize);
   24124:	e0bffd17 	ldw	r2,-12(fp)
   24128:	1009883a 	mov	r4,r2
   2412c:	00245500 	call	24550 <malloc>
   24130:	e0bffe15 	stw	r2,-8(fp)
    memset((void *)pQueue, 0, nSize);
   24134:	e0bffd17 	ldw	r2,-12(fp)
   24138:	100d883a 	mov	r6,r2
   2413c:	000b883a 	mov	r5,zero
   24140:	e13ffe17 	ldw	r4,-8(fp)
   24144:	0024d840 	call	24d84 <memset>
    pQueue->num = nQueueNum;
   24148:	e0ffff17 	ldw	r3,-4(fp)
   2414c:	e0bffe17 	ldw	r2,-8(fp)
   24150:	10c00015 	stw	r3,0(r2)
    return pQueue;
   24154:	e0bffe17 	ldw	r2,-8(fp)
}
   24158:	e037883a 	mov	sp,fp
   2415c:	dfc00117 	ldw	ra,4(sp)
   24160:	df000017 	ldw	fp,0(sp)
   24164:	dec00204 	addi	sp,sp,8
   24168:	f800283a 	ret

0002416c <QUEUE_Delete>:

void QUEUE_Delete(QUEUE_STRUCT *pQueue){
   2416c:	defffd04 	addi	sp,sp,-12
   24170:	dfc00215 	stw	ra,8(sp)
   24174:	df000115 	stw	fp,4(sp)
   24178:	df000104 	addi	fp,sp,4
   2417c:	e13fff15 	stw	r4,-4(fp)
    free(pQueue);
   24180:	e13fff17 	ldw	r4,-4(fp)
   24184:	00245640 	call	24564 <free>
}
   24188:	0001883a 	nop
   2418c:	e037883a 	mov	sp,fp
   24190:	dfc00117 	ldw	ra,4(sp)
   24194:	df000017 	ldw	fp,0(sp)
   24198:	dec00204 	addi	sp,sp,8
   2419c:	f800283a 	ret

000241a0 <QUEUE_IsEmpty>:

bool QUEUE_IsEmpty(QUEUE_STRUCT *pQueue){
   241a0:	defffe04 	addi	sp,sp,-8
   241a4:	df000115 	stw	fp,4(sp)
   241a8:	df000104 	addi	fp,sp,4
   241ac:	e13fff15 	stw	r4,-4(fp)
    if (pQueue->front == pQueue->rear)
   241b0:	e0bfff17 	ldw	r2,-4(fp)
   241b4:	10c00117 	ldw	r3,4(r2)
   241b8:	e0bfff17 	ldw	r2,-4(fp)
   241bc:	10800217 	ldw	r2,8(r2)
   241c0:	1880021e 	bne	r3,r2,241cc <QUEUE_IsEmpty+0x2c>
        return TRUE;
   241c4:	00800044 	movi	r2,1
   241c8:	00000106 	br	241d0 <QUEUE_IsEmpty+0x30>
    return FALSE;
   241cc:	0005883a 	mov	r2,zero
}
   241d0:	e037883a 	mov	sp,fp
   241d4:	df000017 	ldw	fp,0(sp)
   241d8:	dec00104 	addi	sp,sp,4
   241dc:	f800283a 	ret

000241e0 <QUEUE_IsFull>:

bool QUEUE_IsFull(QUEUE_STRUCT *pQueue){
   241e0:	defffd04 	addi	sp,sp,-12
   241e4:	dfc00215 	stw	ra,8(sp)
   241e8:	df000115 	stw	fp,4(sp)
   241ec:	df000104 	addi	fp,sp,4
   241f0:	e13fff15 	stw	r4,-4(fp)
    if (((pQueue->front+1)%pQueue->num) == pQueue->rear)
   241f4:	e0bfff17 	ldw	r2,-4(fp)
   241f8:	10800117 	ldw	r2,4(r2)
   241fc:	10c00044 	addi	r3,r2,1
   24200:	e0bfff17 	ldw	r2,-4(fp)
   24204:	10800017 	ldw	r2,0(r2)
   24208:	100b883a 	mov	r5,r2
   2420c:	1809883a 	mov	r4,r3
   24210:	00244f80 	call	244f8 <__umodsi3>
   24214:	1007883a 	mov	r3,r2
   24218:	e0bfff17 	ldw	r2,-4(fp)
   2421c:	10800217 	ldw	r2,8(r2)
   24220:	1880021e 	bne	r3,r2,2422c <QUEUE_IsFull+0x4c>
        return TRUE;
   24224:	00800044 	movi	r2,1
   24228:	00000106 	br	24230 <QUEUE_IsFull+0x50>
    return FALSE;
   2422c:	0005883a 	mov	r2,zero
}
   24230:	e037883a 	mov	sp,fp
   24234:	dfc00117 	ldw	ra,4(sp)
   24238:	df000017 	ldw	fp,0(sp)
   2423c:	dec00204 	addi	sp,sp,8
   24240:	f800283a 	ret

00024244 <QUEUE_Push>:

bool QUEUE_Push(QUEUE_STRUCT *pQueue, alt_u32 data32){
   24244:	defffc04 	addi	sp,sp,-16
   24248:	dfc00315 	stw	ra,12(sp)
   2424c:	df000215 	stw	fp,8(sp)
   24250:	df000204 	addi	fp,sp,8
   24254:	e13ffe15 	stw	r4,-8(fp)
   24258:	e17fff15 	stw	r5,-4(fp)
    if (QUEUE_IsFull(pQueue))
   2425c:	e13ffe17 	ldw	r4,-8(fp)
   24260:	00241e00 	call	241e0 <QUEUE_IsFull>
   24264:	10000226 	beq	r2,zero,24270 <QUEUE_Push+0x2c>
        return FALSE;
   24268:	0005883a 	mov	r2,zero
   2426c:	00001506 	br	242c4 <QUEUE_Push+0x80>
    pQueue->data[pQueue->front] = data32;
   24270:	e0bffe17 	ldw	r2,-8(fp)
   24274:	10800117 	ldw	r2,4(r2)
   24278:	e0fffe17 	ldw	r3,-8(fp)
   2427c:	108000c4 	addi	r2,r2,3
   24280:	1085883a 	add	r2,r2,r2
   24284:	1085883a 	add	r2,r2,r2
   24288:	1885883a 	add	r2,r3,r2
   2428c:	e0ffff17 	ldw	r3,-4(fp)
   24290:	10c00015 	stw	r3,0(r2)
    pQueue->front = (pQueue->front+1)%pQueue->num;        
   24294:	e0bffe17 	ldw	r2,-8(fp)
   24298:	10800117 	ldw	r2,4(r2)
   2429c:	10c00044 	addi	r3,r2,1
   242a0:	e0bffe17 	ldw	r2,-8(fp)
   242a4:	10800017 	ldw	r2,0(r2)
   242a8:	100b883a 	mov	r5,r2
   242ac:	1809883a 	mov	r4,r3
   242b0:	00244f80 	call	244f8 <__umodsi3>
   242b4:	1007883a 	mov	r3,r2
   242b8:	e0bffe17 	ldw	r2,-8(fp)
   242bc:	10c00115 	stw	r3,4(r2)
    return TRUE;
   242c0:	00800044 	movi	r2,1
}
   242c4:	e037883a 	mov	sp,fp
   242c8:	dfc00117 	ldw	ra,4(sp)
   242cc:	df000017 	ldw	fp,0(sp)
   242d0:	dec00204 	addi	sp,sp,8
   242d4:	f800283a 	ret

000242d8 <QUEUE_Pop>:

alt_u32 QUEUE_Pop(QUEUE_STRUCT *pQueue){
   242d8:	defffc04 	addi	sp,sp,-16
   242dc:	dfc00315 	stw	ra,12(sp)
   242e0:	df000215 	stw	fp,8(sp)
   242e4:	df000204 	addi	fp,sp,8
   242e8:	e13fff15 	stw	r4,-4(fp)
    alt_u32 data32;
    if (QUEUE_IsEmpty(pQueue))
   242ec:	e13fff17 	ldw	r4,-4(fp)
   242f0:	00241a00 	call	241a0 <QUEUE_IsEmpty>
   242f4:	10000226 	beq	r2,zero,24300 <QUEUE_Pop+0x28>
        return 0;
   242f8:	0005883a 	mov	r2,zero
   242fc:	00001506 	br	24354 <QUEUE_Pop+0x7c>
    data32 = pQueue->data[pQueue->rear];
   24300:	e0bfff17 	ldw	r2,-4(fp)
   24304:	10800217 	ldw	r2,8(r2)
   24308:	e0ffff17 	ldw	r3,-4(fp)
   2430c:	108000c4 	addi	r2,r2,3
   24310:	1085883a 	add	r2,r2,r2
   24314:	1085883a 	add	r2,r2,r2
   24318:	1885883a 	add	r2,r3,r2
   2431c:	10800017 	ldw	r2,0(r2)
   24320:	e0bffe15 	stw	r2,-8(fp)
    pQueue->rear = (pQueue->rear+1)%pQueue->num;        
   24324:	e0bfff17 	ldw	r2,-4(fp)
   24328:	10800217 	ldw	r2,8(r2)
   2432c:	10c00044 	addi	r3,r2,1
   24330:	e0bfff17 	ldw	r2,-4(fp)
   24334:	10800017 	ldw	r2,0(r2)
   24338:	100b883a 	mov	r5,r2
   2433c:	1809883a 	mov	r4,r3
   24340:	00244f80 	call	244f8 <__umodsi3>
   24344:	1007883a 	mov	r3,r2
   24348:	e0bfff17 	ldw	r2,-4(fp)
   2434c:	10c00215 	stw	r3,8(r2)
    return data32;
   24350:	e0bffe17 	ldw	r2,-8(fp)
}
   24354:	e037883a 	mov	sp,fp
   24358:	dfc00117 	ldw	ra,4(sp)
   2435c:	df000017 	ldw	fp,0(sp)
   24360:	dec00204 	addi	sp,sp,8
   24364:	f800283a 	ret

00024368 <QUEUE_Empty>:

void QUEUE_Empty(QUEUE_STRUCT *pQueue){
   24368:	defffe04 	addi	sp,sp,-8
   2436c:	df000115 	stw	fp,4(sp)
   24370:	df000104 	addi	fp,sp,4
   24374:	e13fff15 	stw	r4,-4(fp)
    pQueue->front = 0;
   24378:	e0bfff17 	ldw	r2,-4(fp)
   2437c:	10000115 	stw	zero,4(r2)
    pQueue->rear = 0;
   24380:	e0bfff17 	ldw	r2,-4(fp)
   24384:	10000215 	stw	zero,8(r2)
}
   24388:	0001883a 	nop
   2438c:	e037883a 	mov	sp,fp
   24390:	df000017 	ldw	fp,0(sp)
   24394:	dec00104 	addi	sp,sp,4
   24398:	f800283a 	ret

0002439c <__divsi3>:
   2439c:	20001b16 	blt	r4,zero,2440c <__divsi3+0x70>
   243a0:	000f883a 	mov	r7,zero
   243a4:	28001616 	blt	r5,zero,24400 <__divsi3+0x64>
   243a8:	200d883a 	mov	r6,r4
   243ac:	29001a2e 	bgeu	r5,r4,24418 <__divsi3+0x7c>
   243b0:	00800804 	movi	r2,32
   243b4:	00c00044 	movi	r3,1
   243b8:	00000106 	br	243c0 <__divsi3+0x24>
   243bc:	10000d26 	beq	r2,zero,243f4 <__divsi3+0x58>
   243c0:	294b883a 	add	r5,r5,r5
   243c4:	10bfffc4 	addi	r2,r2,-1
   243c8:	18c7883a 	add	r3,r3,r3
   243cc:	293ffb36 	bltu	r5,r4,243bc <__alt_data_end+0xfffe4fbc>
   243d0:	0005883a 	mov	r2,zero
   243d4:	18000726 	beq	r3,zero,243f4 <__divsi3+0x58>
   243d8:	0005883a 	mov	r2,zero
   243dc:	31400236 	bltu	r6,r5,243e8 <__divsi3+0x4c>
   243e0:	314dc83a 	sub	r6,r6,r5
   243e4:	10c4b03a 	or	r2,r2,r3
   243e8:	1806d07a 	srli	r3,r3,1
   243ec:	280ad07a 	srli	r5,r5,1
   243f0:	183ffa1e 	bne	r3,zero,243dc <__alt_data_end+0xfffe4fdc>
   243f4:	38000126 	beq	r7,zero,243fc <__divsi3+0x60>
   243f8:	0085c83a 	sub	r2,zero,r2
   243fc:	f800283a 	ret
   24400:	014bc83a 	sub	r5,zero,r5
   24404:	39c0005c 	xori	r7,r7,1
   24408:	003fe706 	br	243a8 <__alt_data_end+0xfffe4fa8>
   2440c:	0109c83a 	sub	r4,zero,r4
   24410:	01c00044 	movi	r7,1
   24414:	003fe306 	br	243a4 <__alt_data_end+0xfffe4fa4>
   24418:	00c00044 	movi	r3,1
   2441c:	003fee06 	br	243d8 <__alt_data_end+0xfffe4fd8>

00024420 <__modsi3>:
   24420:	20001716 	blt	r4,zero,24480 <__modsi3+0x60>
   24424:	000f883a 	mov	r7,zero
   24428:	2005883a 	mov	r2,r4
   2442c:	28001216 	blt	r5,zero,24478 <__modsi3+0x58>
   24430:	2900162e 	bgeu	r5,r4,2448c <__modsi3+0x6c>
   24434:	01800804 	movi	r6,32
   24438:	00c00044 	movi	r3,1
   2443c:	00000106 	br	24444 <__modsi3+0x24>
   24440:	30000a26 	beq	r6,zero,2446c <__modsi3+0x4c>
   24444:	294b883a 	add	r5,r5,r5
   24448:	31bfffc4 	addi	r6,r6,-1
   2444c:	18c7883a 	add	r3,r3,r3
   24450:	293ffb36 	bltu	r5,r4,24440 <__alt_data_end+0xfffe5040>
   24454:	18000526 	beq	r3,zero,2446c <__modsi3+0x4c>
   24458:	1806d07a 	srli	r3,r3,1
   2445c:	11400136 	bltu	r2,r5,24464 <__modsi3+0x44>
   24460:	1145c83a 	sub	r2,r2,r5
   24464:	280ad07a 	srli	r5,r5,1
   24468:	183ffb1e 	bne	r3,zero,24458 <__alt_data_end+0xfffe5058>
   2446c:	38000126 	beq	r7,zero,24474 <__modsi3+0x54>
   24470:	0085c83a 	sub	r2,zero,r2
   24474:	f800283a 	ret
   24478:	014bc83a 	sub	r5,zero,r5
   2447c:	003fec06 	br	24430 <__alt_data_end+0xfffe5030>
   24480:	0109c83a 	sub	r4,zero,r4
   24484:	01c00044 	movi	r7,1
   24488:	003fe706 	br	24428 <__alt_data_end+0xfffe5028>
   2448c:	00c00044 	movi	r3,1
   24490:	003ff106 	br	24458 <__alt_data_end+0xfffe5058>

00024494 <__udivsi3>:
   24494:	200d883a 	mov	r6,r4
   24498:	2900152e 	bgeu	r5,r4,244f0 <__udivsi3+0x5c>
   2449c:	28001416 	blt	r5,zero,244f0 <__udivsi3+0x5c>
   244a0:	00800804 	movi	r2,32
   244a4:	00c00044 	movi	r3,1
   244a8:	00000206 	br	244b4 <__udivsi3+0x20>
   244ac:	10000e26 	beq	r2,zero,244e8 <__udivsi3+0x54>
   244b0:	28000516 	blt	r5,zero,244c8 <__udivsi3+0x34>
   244b4:	294b883a 	add	r5,r5,r5
   244b8:	10bfffc4 	addi	r2,r2,-1
   244bc:	18c7883a 	add	r3,r3,r3
   244c0:	293ffa36 	bltu	r5,r4,244ac <__alt_data_end+0xfffe50ac>
   244c4:	18000826 	beq	r3,zero,244e8 <__udivsi3+0x54>
   244c8:	0005883a 	mov	r2,zero
   244cc:	31400236 	bltu	r6,r5,244d8 <__udivsi3+0x44>
   244d0:	314dc83a 	sub	r6,r6,r5
   244d4:	10c4b03a 	or	r2,r2,r3
   244d8:	1806d07a 	srli	r3,r3,1
   244dc:	280ad07a 	srli	r5,r5,1
   244e0:	183ffa1e 	bne	r3,zero,244cc <__alt_data_end+0xfffe50cc>
   244e4:	f800283a 	ret
   244e8:	0005883a 	mov	r2,zero
   244ec:	f800283a 	ret
   244f0:	00c00044 	movi	r3,1
   244f4:	003ff406 	br	244c8 <__alt_data_end+0xfffe50c8>

000244f8 <__umodsi3>:
   244f8:	2005883a 	mov	r2,r4
   244fc:	2900122e 	bgeu	r5,r4,24548 <__umodsi3+0x50>
   24500:	28001116 	blt	r5,zero,24548 <__umodsi3+0x50>
   24504:	01800804 	movi	r6,32
   24508:	00c00044 	movi	r3,1
   2450c:	00000206 	br	24518 <__umodsi3+0x20>
   24510:	30000c26 	beq	r6,zero,24544 <__umodsi3+0x4c>
   24514:	28000516 	blt	r5,zero,2452c <__umodsi3+0x34>
   24518:	294b883a 	add	r5,r5,r5
   2451c:	31bfffc4 	addi	r6,r6,-1
   24520:	18c7883a 	add	r3,r3,r3
   24524:	293ffa36 	bltu	r5,r4,24510 <__alt_data_end+0xfffe5110>
   24528:	18000626 	beq	r3,zero,24544 <__umodsi3+0x4c>
   2452c:	1806d07a 	srli	r3,r3,1
   24530:	11400136 	bltu	r2,r5,24538 <__umodsi3+0x40>
   24534:	1145c83a 	sub	r2,r2,r5
   24538:	280ad07a 	srli	r5,r5,1
   2453c:	183ffb1e 	bne	r3,zero,2452c <__alt_data_end+0xfffe512c>
   24540:	f800283a 	ret
   24544:	f800283a 	ret
   24548:	00c00044 	movi	r3,1
   2454c:	003ff706 	br	2452c <__alt_data_end+0xfffe512c>

00024550 <malloc>:
   24550:	008000f4 	movhi	r2,3
   24554:	109ae304 	addi	r2,r2,27532
   24558:	200b883a 	mov	r5,r4
   2455c:	11000017 	ldw	r4,0(r2)
   24560:	00245781 	jmpi	24578 <_malloc_r>

00024564 <free>:
   24564:	008000f4 	movhi	r2,3
   24568:	109ae304 	addi	r2,r2,27532
   2456c:	200b883a 	mov	r5,r4
   24570:	11000017 	ldw	r4,0(r2)
   24574:	0029a6c1 	jmpi	29a6c <_free_r>

00024578 <_malloc_r>:
   24578:	defff504 	addi	sp,sp,-44
   2457c:	dc800315 	stw	r18,12(sp)
   24580:	dfc00a15 	stw	ra,40(sp)
   24584:	df000915 	stw	fp,36(sp)
   24588:	ddc00815 	stw	r23,32(sp)
   2458c:	dd800715 	stw	r22,28(sp)
   24590:	dd400615 	stw	r21,24(sp)
   24594:	dd000515 	stw	r20,20(sp)
   24598:	dcc00415 	stw	r19,16(sp)
   2459c:	dc400215 	stw	r17,8(sp)
   245a0:	dc000115 	stw	r16,4(sp)
   245a4:	288002c4 	addi	r2,r5,11
   245a8:	00c00584 	movi	r3,22
   245ac:	2025883a 	mov	r18,r4
   245b0:	18807f2e 	bgeu	r3,r2,247b0 <_malloc_r+0x238>
   245b4:	047ffe04 	movi	r17,-8
   245b8:	1462703a 	and	r17,r2,r17
   245bc:	8800a316 	blt	r17,zero,2484c <_malloc_r+0x2d4>
   245c0:	8940a236 	bltu	r17,r5,2484c <_malloc_r+0x2d4>
